ARM GAS  /tmp/cc6lcHVI.s 			page 1


   1              		.syntax unified
   2              		.cpu cortex-m3
   3              		.fpu softvfp
   4              		.eabi_attribute 20, 1
   5              		.eabi_attribute 21, 1
   6              		.eabi_attribute 23, 3
   7              		.eabi_attribute 24, 1
   8              		.eabi_attribute 25, 1
   9              		.eabi_attribute 26, 1
  10              		.eabi_attribute 30, 1
  11              		.eabi_attribute 34, 1
  12              		.eabi_attribute 18, 4
  13              		.thumb
  14              		.file	"stm32f1xx_hal_dma.c"
  15              		.text
  16              	.Ltext0:
  17              		.cfi_sections	.debug_frame
  18              		.section	.text.DMA_SetConfig,"ax",%progbits
  19              		.align	2
  20              		.thumb
  21              		.thumb_func
  23              	DMA_SetConfig:
  24              	.LFB75:
  25              		.file 1 "Drivers/STM32F1xx_HAL_Driver/Src/stm32f1xx_hal_dma.c"
   1:Drivers/STM32F1xx_HAL_Driver/Src/stm32f1xx_hal_dma.c **** /**
   2:Drivers/STM32F1xx_HAL_Driver/Src/stm32f1xx_hal_dma.c ****   ******************************************************************************
   3:Drivers/STM32F1xx_HAL_Driver/Src/stm32f1xx_hal_dma.c ****   * @file    stm32f1xx_hal_dma.c
   4:Drivers/STM32F1xx_HAL_Driver/Src/stm32f1xx_hal_dma.c ****   * @author  MCD Application Team
   5:Drivers/STM32F1xx_HAL_Driver/Src/stm32f1xx_hal_dma.c ****   * @version V1.1.1
   6:Drivers/STM32F1xx_HAL_Driver/Src/stm32f1xx_hal_dma.c ****   * @date    12-May-2017
   7:Drivers/STM32F1xx_HAL_Driver/Src/stm32f1xx_hal_dma.c ****   * @brief   DMA HAL module driver.
   8:Drivers/STM32F1xx_HAL_Driver/Src/stm32f1xx_hal_dma.c ****   *         This file provides firmware functions to manage the following
   9:Drivers/STM32F1xx_HAL_Driver/Src/stm32f1xx_hal_dma.c ****   *         functionalities of the Direct Memory Access (DMA) peripheral:
  10:Drivers/STM32F1xx_HAL_Driver/Src/stm32f1xx_hal_dma.c ****   *           + Initialization and de-initialization functions
  11:Drivers/STM32F1xx_HAL_Driver/Src/stm32f1xx_hal_dma.c ****   *           + IO operation functions
  12:Drivers/STM32F1xx_HAL_Driver/Src/stm32f1xx_hal_dma.c ****   *           + Peripheral State and errors functions
  13:Drivers/STM32F1xx_HAL_Driver/Src/stm32f1xx_hal_dma.c ****   @verbatim
  14:Drivers/STM32F1xx_HAL_Driver/Src/stm32f1xx_hal_dma.c ****   ==============================================================================
  15:Drivers/STM32F1xx_HAL_Driver/Src/stm32f1xx_hal_dma.c ****                         ##### How to use this driver #####
  16:Drivers/STM32F1xx_HAL_Driver/Src/stm32f1xx_hal_dma.c ****   ==============================================================================
  17:Drivers/STM32F1xx_HAL_Driver/Src/stm32f1xx_hal_dma.c ****   [..]
  18:Drivers/STM32F1xx_HAL_Driver/Src/stm32f1xx_hal_dma.c ****    (#) Enable and configure the peripheral to be connected to the DMA Channel
  19:Drivers/STM32F1xx_HAL_Driver/Src/stm32f1xx_hal_dma.c ****        (except for internal SRAM / FLASH memories: no initialization is 
  20:Drivers/STM32F1xx_HAL_Driver/Src/stm32f1xx_hal_dma.c ****        necessary). Please refer to the Reference manual for connection between peripherals
  21:Drivers/STM32F1xx_HAL_Driver/Src/stm32f1xx_hal_dma.c ****        and DMA requests.
  22:Drivers/STM32F1xx_HAL_Driver/Src/stm32f1xx_hal_dma.c **** 
  23:Drivers/STM32F1xx_HAL_Driver/Src/stm32f1xx_hal_dma.c ****    (#) For a given Channel, program the required configuration through the following parameters:
  24:Drivers/STM32F1xx_HAL_Driver/Src/stm32f1xx_hal_dma.c ****        Channel request, Transfer Direction, Source and Destination data formats,
  25:Drivers/STM32F1xx_HAL_Driver/Src/stm32f1xx_hal_dma.c ****        Circular or Normal mode, Channel Priority level, Source and Destination Increment mode
  26:Drivers/STM32F1xx_HAL_Driver/Src/stm32f1xx_hal_dma.c ****        using HAL_DMA_Init() function.
  27:Drivers/STM32F1xx_HAL_Driver/Src/stm32f1xx_hal_dma.c **** 
  28:Drivers/STM32F1xx_HAL_Driver/Src/stm32f1xx_hal_dma.c ****    (#) Use HAL_DMA_GetState() function to return the DMA state and HAL_DMA_GetError() in case of er
  29:Drivers/STM32F1xx_HAL_Driver/Src/stm32f1xx_hal_dma.c ****        detection.
  30:Drivers/STM32F1xx_HAL_Driver/Src/stm32f1xx_hal_dma.c ****                     
  31:Drivers/STM32F1xx_HAL_Driver/Src/stm32f1xx_hal_dma.c ****    (#) Use HAL_DMA_Abort() function to abort the current transfer
  32:Drivers/STM32F1xx_HAL_Driver/Src/stm32f1xx_hal_dma.c ****                    
  33:Drivers/STM32F1xx_HAL_Driver/Src/stm32f1xx_hal_dma.c ****      -@-   In Memory-to-Memory transfer mode, Circular mode is not allowed.
ARM GAS  /tmp/cc6lcHVI.s 			page 2


  34:Drivers/STM32F1xx_HAL_Driver/Src/stm32f1xx_hal_dma.c ****      *** Polling mode IO operation ***
  35:Drivers/STM32F1xx_HAL_Driver/Src/stm32f1xx_hal_dma.c ****      =================================
  36:Drivers/STM32F1xx_HAL_Driver/Src/stm32f1xx_hal_dma.c ****     [..]
  37:Drivers/STM32F1xx_HAL_Driver/Src/stm32f1xx_hal_dma.c ****           (+) Use HAL_DMA_Start() to start DMA transfer after the configuration of Source
  38:Drivers/STM32F1xx_HAL_Driver/Src/stm32f1xx_hal_dma.c ****               address and destination address and the Length of data to be transferred
  39:Drivers/STM32F1xx_HAL_Driver/Src/stm32f1xx_hal_dma.c ****           (+) Use HAL_DMA_PollForTransfer() to poll for the end of current transfer, in this
  40:Drivers/STM32F1xx_HAL_Driver/Src/stm32f1xx_hal_dma.c ****               case a fixed Timeout can be configured by User depending from his application.
  41:Drivers/STM32F1xx_HAL_Driver/Src/stm32f1xx_hal_dma.c **** 
  42:Drivers/STM32F1xx_HAL_Driver/Src/stm32f1xx_hal_dma.c ****      *** Interrupt mode IO operation ***
  43:Drivers/STM32F1xx_HAL_Driver/Src/stm32f1xx_hal_dma.c ****      ===================================
  44:Drivers/STM32F1xx_HAL_Driver/Src/stm32f1xx_hal_dma.c ****     [..]
  45:Drivers/STM32F1xx_HAL_Driver/Src/stm32f1xx_hal_dma.c ****           (+) Configure the DMA interrupt priority using HAL_NVIC_SetPriority()
  46:Drivers/STM32F1xx_HAL_Driver/Src/stm32f1xx_hal_dma.c ****           (+) Enable the DMA IRQ handler using HAL_NVIC_EnableIRQ()
  47:Drivers/STM32F1xx_HAL_Driver/Src/stm32f1xx_hal_dma.c ****           (+) Use HAL_DMA_Start_IT() to start DMA transfer after the configuration of
  48:Drivers/STM32F1xx_HAL_Driver/Src/stm32f1xx_hal_dma.c ****               Source address and destination address and the Length of data to be transferred.
  49:Drivers/STM32F1xx_HAL_Driver/Src/stm32f1xx_hal_dma.c ****               In this case the DMA interrupt is configured
  50:Drivers/STM32F1xx_HAL_Driver/Src/stm32f1xx_hal_dma.c ****           (+) Use HAL_DMA_IRQHandler() called under DMA_IRQHandler() Interrupt subroutine
  51:Drivers/STM32F1xx_HAL_Driver/Src/stm32f1xx_hal_dma.c ****           (+) At the end of data transfer HAL_DMA_IRQHandler() function is executed and user can
  52:Drivers/STM32F1xx_HAL_Driver/Src/stm32f1xx_hal_dma.c ****               add his own function by customization of function pointer XferCpltCallback and
  53:Drivers/STM32F1xx_HAL_Driver/Src/stm32f1xx_hal_dma.c ****               XferErrorCallback (i.e. a member of DMA handle structure).
  54:Drivers/STM32F1xx_HAL_Driver/Src/stm32f1xx_hal_dma.c **** 
  55:Drivers/STM32F1xx_HAL_Driver/Src/stm32f1xx_hal_dma.c ****      *** DMA HAL driver macros list ***
  56:Drivers/STM32F1xx_HAL_Driver/Src/stm32f1xx_hal_dma.c ****      ============================================= 
  57:Drivers/STM32F1xx_HAL_Driver/Src/stm32f1xx_hal_dma.c ****       [..]
  58:Drivers/STM32F1xx_HAL_Driver/Src/stm32f1xx_hal_dma.c ****        Below the list of most used macros in DMA HAL driver.
  59:Drivers/STM32F1xx_HAL_Driver/Src/stm32f1xx_hal_dma.c **** 
  60:Drivers/STM32F1xx_HAL_Driver/Src/stm32f1xx_hal_dma.c ****        (+) __HAL_DMA_ENABLE: Enable the specified DMA Channel.
  61:Drivers/STM32F1xx_HAL_Driver/Src/stm32f1xx_hal_dma.c ****        (+) __HAL_DMA_DISABLE: Disable the specified DMA Channel.
  62:Drivers/STM32F1xx_HAL_Driver/Src/stm32f1xx_hal_dma.c ****        (+) __HAL_DMA_GET_FLAG: Get the DMA Channel pending flags.
  63:Drivers/STM32F1xx_HAL_Driver/Src/stm32f1xx_hal_dma.c ****        (+) __HAL_DMA_CLEAR_FLAG: Clear the DMA Channel pending flags.
  64:Drivers/STM32F1xx_HAL_Driver/Src/stm32f1xx_hal_dma.c ****        (+) __HAL_DMA_ENABLE_IT: Enable the specified DMA Channel interrupts.
  65:Drivers/STM32F1xx_HAL_Driver/Src/stm32f1xx_hal_dma.c ****        (+) __HAL_DMA_DISABLE_IT: Disable the specified DMA Channel interrupts.
  66:Drivers/STM32F1xx_HAL_Driver/Src/stm32f1xx_hal_dma.c ****        (+) __HAL_DMA_GET_IT_SOURCE: Check whether the specified DMA Channel interrupt has occurred 
  67:Drivers/STM32F1xx_HAL_Driver/Src/stm32f1xx_hal_dma.c **** 
  68:Drivers/STM32F1xx_HAL_Driver/Src/stm32f1xx_hal_dma.c ****      [..] 
  69:Drivers/STM32F1xx_HAL_Driver/Src/stm32f1xx_hal_dma.c ****       (@) You can refer to the DMA HAL driver header file for more useful macros  
  70:Drivers/STM32F1xx_HAL_Driver/Src/stm32f1xx_hal_dma.c **** 
  71:Drivers/STM32F1xx_HAL_Driver/Src/stm32f1xx_hal_dma.c ****   @endverbatim
  72:Drivers/STM32F1xx_HAL_Driver/Src/stm32f1xx_hal_dma.c ****   ******************************************************************************
  73:Drivers/STM32F1xx_HAL_Driver/Src/stm32f1xx_hal_dma.c ****   * @attention
  74:Drivers/STM32F1xx_HAL_Driver/Src/stm32f1xx_hal_dma.c ****   *
  75:Drivers/STM32F1xx_HAL_Driver/Src/stm32f1xx_hal_dma.c ****   * <h2><center>&copy; COPYRIGHT(c) 2017 STMicroelectronics</center></h2>
  76:Drivers/STM32F1xx_HAL_Driver/Src/stm32f1xx_hal_dma.c ****   *
  77:Drivers/STM32F1xx_HAL_Driver/Src/stm32f1xx_hal_dma.c ****   * Redistribution and use in source and binary forms, with or without modification,
  78:Drivers/STM32F1xx_HAL_Driver/Src/stm32f1xx_hal_dma.c ****   * are permitted provided that the following conditions are met:
  79:Drivers/STM32F1xx_HAL_Driver/Src/stm32f1xx_hal_dma.c ****   *   1. Redistributions of source code must retain the above copyright notice,
  80:Drivers/STM32F1xx_HAL_Driver/Src/stm32f1xx_hal_dma.c ****   *      this list of conditions and the following disclaimer.
  81:Drivers/STM32F1xx_HAL_Driver/Src/stm32f1xx_hal_dma.c ****   *   2. Redistributions in binary form must reproduce the above copyright notice,
  82:Drivers/STM32F1xx_HAL_Driver/Src/stm32f1xx_hal_dma.c ****   *      this list of conditions and the following disclaimer in the documentation
  83:Drivers/STM32F1xx_HAL_Driver/Src/stm32f1xx_hal_dma.c ****   *      and/or other materials provided with the distribution.
  84:Drivers/STM32F1xx_HAL_Driver/Src/stm32f1xx_hal_dma.c ****   *   3. Neither the name of STMicroelectronics nor the names of its contributors
  85:Drivers/STM32F1xx_HAL_Driver/Src/stm32f1xx_hal_dma.c ****   *      may be used to endorse or promote products derived from this software
  86:Drivers/STM32F1xx_HAL_Driver/Src/stm32f1xx_hal_dma.c ****   *      without specific prior written permission.
  87:Drivers/STM32F1xx_HAL_Driver/Src/stm32f1xx_hal_dma.c ****   *
  88:Drivers/STM32F1xx_HAL_Driver/Src/stm32f1xx_hal_dma.c ****   * THIS SOFTWARE IS PROVIDED BY THE COPYRIGHT HOLDERS AND CONTRIBUTORS "AS IS"
  89:Drivers/STM32F1xx_HAL_Driver/Src/stm32f1xx_hal_dma.c ****   * AND ANY EXPRESS OR IMPLIED WARRANTIES, INCLUDING, BUT NOT LIMITED TO, THE
  90:Drivers/STM32F1xx_HAL_Driver/Src/stm32f1xx_hal_dma.c ****   * IMPLIED WARRANTIES OF MERCHANTABILITY AND FITNESS FOR A PARTICULAR PURPOSE ARE
ARM GAS  /tmp/cc6lcHVI.s 			page 3


  91:Drivers/STM32F1xx_HAL_Driver/Src/stm32f1xx_hal_dma.c ****   * DISCLAIMED. IN NO EVENT SHALL THE COPYRIGHT HOLDER OR CONTRIBUTORS BE LIABLE
  92:Drivers/STM32F1xx_HAL_Driver/Src/stm32f1xx_hal_dma.c ****   * FOR ANY DIRECT, INDIRECT, INCIDENTAL, SPECIAL, EXEMPLARY, OR CONSEQUENTIAL
  93:Drivers/STM32F1xx_HAL_Driver/Src/stm32f1xx_hal_dma.c ****   * DAMAGES (INCLUDING, BUT NOT LIMITED TO, PROCUREMENT OF SUBSTITUTE GOODS OR
  94:Drivers/STM32F1xx_HAL_Driver/Src/stm32f1xx_hal_dma.c ****   * SERVICES; LOSS OF USE, DATA, OR PROFITS; OR BUSINESS INTERRUPTION) HOWEVER
  95:Drivers/STM32F1xx_HAL_Driver/Src/stm32f1xx_hal_dma.c ****   * CAUSED AND ON ANY THEORY OF LIABILITY, WHETHER IN CONTRACT, STRICT LIABILITY,
  96:Drivers/STM32F1xx_HAL_Driver/Src/stm32f1xx_hal_dma.c ****   * OR TORT (INCLUDING NEGLIGENCE OR OTHERWISE) ARISING IN ANY WAY OUT OF THE USE
  97:Drivers/STM32F1xx_HAL_Driver/Src/stm32f1xx_hal_dma.c ****   * OF THIS SOFTWARE, EVEN IF ADVISED OF THE POSSIBILITY OF SUCH DAMAGE.
  98:Drivers/STM32F1xx_HAL_Driver/Src/stm32f1xx_hal_dma.c ****   *
  99:Drivers/STM32F1xx_HAL_Driver/Src/stm32f1xx_hal_dma.c ****   ******************************************************************************
 100:Drivers/STM32F1xx_HAL_Driver/Src/stm32f1xx_hal_dma.c ****   */
 101:Drivers/STM32F1xx_HAL_Driver/Src/stm32f1xx_hal_dma.c **** 
 102:Drivers/STM32F1xx_HAL_Driver/Src/stm32f1xx_hal_dma.c **** /* Includes ------------------------------------------------------------------*/
 103:Drivers/STM32F1xx_HAL_Driver/Src/stm32f1xx_hal_dma.c **** #include "stm32f1xx_hal.h"
 104:Drivers/STM32F1xx_HAL_Driver/Src/stm32f1xx_hal_dma.c **** 
 105:Drivers/STM32F1xx_HAL_Driver/Src/stm32f1xx_hal_dma.c **** /** @addtogroup STM32F1xx_HAL_Driver
 106:Drivers/STM32F1xx_HAL_Driver/Src/stm32f1xx_hal_dma.c ****   * @{
 107:Drivers/STM32F1xx_HAL_Driver/Src/stm32f1xx_hal_dma.c ****   */
 108:Drivers/STM32F1xx_HAL_Driver/Src/stm32f1xx_hal_dma.c **** 
 109:Drivers/STM32F1xx_HAL_Driver/Src/stm32f1xx_hal_dma.c **** /** @defgroup DMA DMA
 110:Drivers/STM32F1xx_HAL_Driver/Src/stm32f1xx_hal_dma.c ****   * @brief DMA HAL module driver
 111:Drivers/STM32F1xx_HAL_Driver/Src/stm32f1xx_hal_dma.c ****   * @{
 112:Drivers/STM32F1xx_HAL_Driver/Src/stm32f1xx_hal_dma.c ****   */
 113:Drivers/STM32F1xx_HAL_Driver/Src/stm32f1xx_hal_dma.c **** 
 114:Drivers/STM32F1xx_HAL_Driver/Src/stm32f1xx_hal_dma.c **** #ifdef HAL_DMA_MODULE_ENABLED
 115:Drivers/STM32F1xx_HAL_Driver/Src/stm32f1xx_hal_dma.c **** 
 116:Drivers/STM32F1xx_HAL_Driver/Src/stm32f1xx_hal_dma.c **** /* Private typedef -----------------------------------------------------------*/
 117:Drivers/STM32F1xx_HAL_Driver/Src/stm32f1xx_hal_dma.c **** /* Private define ------------------------------------------------------------*/
 118:Drivers/STM32F1xx_HAL_Driver/Src/stm32f1xx_hal_dma.c **** /* Private macro -------------------------------------------------------------*/
 119:Drivers/STM32F1xx_HAL_Driver/Src/stm32f1xx_hal_dma.c **** /* Private variables ---------------------------------------------------------*/
 120:Drivers/STM32F1xx_HAL_Driver/Src/stm32f1xx_hal_dma.c **** /* Private function prototypes -----------------------------------------------*/
 121:Drivers/STM32F1xx_HAL_Driver/Src/stm32f1xx_hal_dma.c **** /** @defgroup DMA_Private_Functions DMA Private Functions
 122:Drivers/STM32F1xx_HAL_Driver/Src/stm32f1xx_hal_dma.c ****   * @{
 123:Drivers/STM32F1xx_HAL_Driver/Src/stm32f1xx_hal_dma.c ****   */
 124:Drivers/STM32F1xx_HAL_Driver/Src/stm32f1xx_hal_dma.c **** static void DMA_SetConfig(DMA_HandleTypeDef *hdma, uint32_t SrcAddress, uint32_t DstAddress, uint32
 125:Drivers/STM32F1xx_HAL_Driver/Src/stm32f1xx_hal_dma.c **** /**
 126:Drivers/STM32F1xx_HAL_Driver/Src/stm32f1xx_hal_dma.c ****   * @}
 127:Drivers/STM32F1xx_HAL_Driver/Src/stm32f1xx_hal_dma.c ****   */
 128:Drivers/STM32F1xx_HAL_Driver/Src/stm32f1xx_hal_dma.c **** 
 129:Drivers/STM32F1xx_HAL_Driver/Src/stm32f1xx_hal_dma.c **** /* Exported functions ---------------------------------------------------------*/
 130:Drivers/STM32F1xx_HAL_Driver/Src/stm32f1xx_hal_dma.c **** 
 131:Drivers/STM32F1xx_HAL_Driver/Src/stm32f1xx_hal_dma.c **** /** @defgroup DMA_Exported_Functions DMA Exported Functions
 132:Drivers/STM32F1xx_HAL_Driver/Src/stm32f1xx_hal_dma.c ****   * @{
 133:Drivers/STM32F1xx_HAL_Driver/Src/stm32f1xx_hal_dma.c ****   */
 134:Drivers/STM32F1xx_HAL_Driver/Src/stm32f1xx_hal_dma.c **** 
 135:Drivers/STM32F1xx_HAL_Driver/Src/stm32f1xx_hal_dma.c **** /** @defgroup DMA_Exported_Functions_Group1 Initialization and de-initialization functions
 136:Drivers/STM32F1xx_HAL_Driver/Src/stm32f1xx_hal_dma.c ****   *  @brief   Initialization and de-initialization functions 
 137:Drivers/STM32F1xx_HAL_Driver/Src/stm32f1xx_hal_dma.c ****   *
 138:Drivers/STM32F1xx_HAL_Driver/Src/stm32f1xx_hal_dma.c **** @verbatim
 139:Drivers/STM32F1xx_HAL_Driver/Src/stm32f1xx_hal_dma.c ****  ===============================================================================
 140:Drivers/STM32F1xx_HAL_Driver/Src/stm32f1xx_hal_dma.c ****              ##### Initialization and de-initialization functions  #####
 141:Drivers/STM32F1xx_HAL_Driver/Src/stm32f1xx_hal_dma.c ****  ===============================================================================
 142:Drivers/STM32F1xx_HAL_Driver/Src/stm32f1xx_hal_dma.c ****     [..]
 143:Drivers/STM32F1xx_HAL_Driver/Src/stm32f1xx_hal_dma.c ****     This section provides functions allowing to initialize the DMA Channel source
 144:Drivers/STM32F1xx_HAL_Driver/Src/stm32f1xx_hal_dma.c ****     and destination addresses, incrementation and data sizes, transfer direction, 
 145:Drivers/STM32F1xx_HAL_Driver/Src/stm32f1xx_hal_dma.c ****     circular/normal mode selection, memory-to-memory mode selection and Channel priority value.
 146:Drivers/STM32F1xx_HAL_Driver/Src/stm32f1xx_hal_dma.c ****     [..]
 147:Drivers/STM32F1xx_HAL_Driver/Src/stm32f1xx_hal_dma.c ****     The HAL_DMA_Init() function follows the DMA configuration procedures as described in
ARM GAS  /tmp/cc6lcHVI.s 			page 4


 148:Drivers/STM32F1xx_HAL_Driver/Src/stm32f1xx_hal_dma.c ****     reference manual.  
 149:Drivers/STM32F1xx_HAL_Driver/Src/stm32f1xx_hal_dma.c **** 
 150:Drivers/STM32F1xx_HAL_Driver/Src/stm32f1xx_hal_dma.c **** @endverbatim
 151:Drivers/STM32F1xx_HAL_Driver/Src/stm32f1xx_hal_dma.c ****   * @{
 152:Drivers/STM32F1xx_HAL_Driver/Src/stm32f1xx_hal_dma.c ****   */
 153:Drivers/STM32F1xx_HAL_Driver/Src/stm32f1xx_hal_dma.c **** 
 154:Drivers/STM32F1xx_HAL_Driver/Src/stm32f1xx_hal_dma.c **** /**
 155:Drivers/STM32F1xx_HAL_Driver/Src/stm32f1xx_hal_dma.c ****   * @brief  Initialize the DMA according to the specified
 156:Drivers/STM32F1xx_HAL_Driver/Src/stm32f1xx_hal_dma.c ****   *         parameters in the DMA_InitTypeDef and initialize the associated handle.
 157:Drivers/STM32F1xx_HAL_Driver/Src/stm32f1xx_hal_dma.c ****   * @param  hdma: Pointer to a DMA_HandleTypeDef structure that contains
 158:Drivers/STM32F1xx_HAL_Driver/Src/stm32f1xx_hal_dma.c ****   *               the configuration information for the specified DMA Channel.
 159:Drivers/STM32F1xx_HAL_Driver/Src/stm32f1xx_hal_dma.c ****   * @retval HAL status
 160:Drivers/STM32F1xx_HAL_Driver/Src/stm32f1xx_hal_dma.c ****   */
 161:Drivers/STM32F1xx_HAL_Driver/Src/stm32f1xx_hal_dma.c **** HAL_StatusTypeDef HAL_DMA_Init(DMA_HandleTypeDef *hdma)
 162:Drivers/STM32F1xx_HAL_Driver/Src/stm32f1xx_hal_dma.c **** {
 163:Drivers/STM32F1xx_HAL_Driver/Src/stm32f1xx_hal_dma.c ****   uint32_t tmp = 0U;
 164:Drivers/STM32F1xx_HAL_Driver/Src/stm32f1xx_hal_dma.c **** 
 165:Drivers/STM32F1xx_HAL_Driver/Src/stm32f1xx_hal_dma.c ****   /* Check the DMA handle allocation */
 166:Drivers/STM32F1xx_HAL_Driver/Src/stm32f1xx_hal_dma.c ****   if(hdma == NULL)
 167:Drivers/STM32F1xx_HAL_Driver/Src/stm32f1xx_hal_dma.c ****   {
 168:Drivers/STM32F1xx_HAL_Driver/Src/stm32f1xx_hal_dma.c ****     return HAL_ERROR;
 169:Drivers/STM32F1xx_HAL_Driver/Src/stm32f1xx_hal_dma.c ****   }
 170:Drivers/STM32F1xx_HAL_Driver/Src/stm32f1xx_hal_dma.c **** 
 171:Drivers/STM32F1xx_HAL_Driver/Src/stm32f1xx_hal_dma.c ****   /* Check the parameters */
 172:Drivers/STM32F1xx_HAL_Driver/Src/stm32f1xx_hal_dma.c ****   assert_param(IS_DMA_ALL_INSTANCE(hdma->Instance));
 173:Drivers/STM32F1xx_HAL_Driver/Src/stm32f1xx_hal_dma.c ****   assert_param(IS_DMA_DIRECTION(hdma->Init.Direction));
 174:Drivers/STM32F1xx_HAL_Driver/Src/stm32f1xx_hal_dma.c ****   assert_param(IS_DMA_PERIPHERAL_INC_STATE(hdma->Init.PeriphInc));
 175:Drivers/STM32F1xx_HAL_Driver/Src/stm32f1xx_hal_dma.c ****   assert_param(IS_DMA_MEMORY_INC_STATE(hdma->Init.MemInc));
 176:Drivers/STM32F1xx_HAL_Driver/Src/stm32f1xx_hal_dma.c ****   assert_param(IS_DMA_PERIPHERAL_DATA_SIZE(hdma->Init.PeriphDataAlignment));
 177:Drivers/STM32F1xx_HAL_Driver/Src/stm32f1xx_hal_dma.c ****   assert_param(IS_DMA_MEMORY_DATA_SIZE(hdma->Init.MemDataAlignment));
 178:Drivers/STM32F1xx_HAL_Driver/Src/stm32f1xx_hal_dma.c ****   assert_param(IS_DMA_MODE(hdma->Init.Mode));
 179:Drivers/STM32F1xx_HAL_Driver/Src/stm32f1xx_hal_dma.c ****   assert_param(IS_DMA_PRIORITY(hdma->Init.Priority));
 180:Drivers/STM32F1xx_HAL_Driver/Src/stm32f1xx_hal_dma.c **** 
 181:Drivers/STM32F1xx_HAL_Driver/Src/stm32f1xx_hal_dma.c **** #if defined (STM32F101xE) || defined (STM32F101xG) || defined (STM32F103xE) || defined (STM32F103xG
 182:Drivers/STM32F1xx_HAL_Driver/Src/stm32f1xx_hal_dma.c ****   /* calculation of the channel index */
 183:Drivers/STM32F1xx_HAL_Driver/Src/stm32f1xx_hal_dma.c ****   if ((uint32_t)(hdma->Instance) < (uint32_t)(DMA2_Channel1))
 184:Drivers/STM32F1xx_HAL_Driver/Src/stm32f1xx_hal_dma.c ****   {
 185:Drivers/STM32F1xx_HAL_Driver/Src/stm32f1xx_hal_dma.c ****     /* DMA1 */
 186:Drivers/STM32F1xx_HAL_Driver/Src/stm32f1xx_hal_dma.c ****     hdma->ChannelIndex = (((uint32_t)hdma->Instance - (uint32_t)DMA1_Channel1) / ((uint32_t)DMA1_Ch
 187:Drivers/STM32F1xx_HAL_Driver/Src/stm32f1xx_hal_dma.c ****     hdma->DmaBaseAddress = DMA1;
 188:Drivers/STM32F1xx_HAL_Driver/Src/stm32f1xx_hal_dma.c ****   }
 189:Drivers/STM32F1xx_HAL_Driver/Src/stm32f1xx_hal_dma.c ****   else 
 190:Drivers/STM32F1xx_HAL_Driver/Src/stm32f1xx_hal_dma.c ****   {
 191:Drivers/STM32F1xx_HAL_Driver/Src/stm32f1xx_hal_dma.c ****     /* DMA2 */
 192:Drivers/STM32F1xx_HAL_Driver/Src/stm32f1xx_hal_dma.c ****     hdma->ChannelIndex = (((uint32_t)hdma->Instance - (uint32_t)DMA2_Channel1) / ((uint32_t)DMA2_Ch
 193:Drivers/STM32F1xx_HAL_Driver/Src/stm32f1xx_hal_dma.c ****     hdma->DmaBaseAddress = DMA2;
 194:Drivers/STM32F1xx_HAL_Driver/Src/stm32f1xx_hal_dma.c ****   }
 195:Drivers/STM32F1xx_HAL_Driver/Src/stm32f1xx_hal_dma.c **** #else
 196:Drivers/STM32F1xx_HAL_Driver/Src/stm32f1xx_hal_dma.c ****   /* DMA1 */
 197:Drivers/STM32F1xx_HAL_Driver/Src/stm32f1xx_hal_dma.c ****   hdma->ChannelIndex = (((uint32_t)hdma->Instance - (uint32_t)DMA1_Channel1) / ((uint32_t)DMA1_Chan
 198:Drivers/STM32F1xx_HAL_Driver/Src/stm32f1xx_hal_dma.c ****   hdma->DmaBaseAddress = DMA1;
 199:Drivers/STM32F1xx_HAL_Driver/Src/stm32f1xx_hal_dma.c **** #endif /* STM32F101xE || STM32F101xG || STM32F103xE || STM32F103xG || STM32F100xE || STM32F105xC ||
 200:Drivers/STM32F1xx_HAL_Driver/Src/stm32f1xx_hal_dma.c **** 
 201:Drivers/STM32F1xx_HAL_Driver/Src/stm32f1xx_hal_dma.c ****   /* Change DMA peripheral state */
 202:Drivers/STM32F1xx_HAL_Driver/Src/stm32f1xx_hal_dma.c ****   hdma->State = HAL_DMA_STATE_BUSY;
 203:Drivers/STM32F1xx_HAL_Driver/Src/stm32f1xx_hal_dma.c **** 
 204:Drivers/STM32F1xx_HAL_Driver/Src/stm32f1xx_hal_dma.c ****   /* Get the CR register value */
ARM GAS  /tmp/cc6lcHVI.s 			page 5


 205:Drivers/STM32F1xx_HAL_Driver/Src/stm32f1xx_hal_dma.c ****   tmp = hdma->Instance->CCR;
 206:Drivers/STM32F1xx_HAL_Driver/Src/stm32f1xx_hal_dma.c **** 
 207:Drivers/STM32F1xx_HAL_Driver/Src/stm32f1xx_hal_dma.c ****   /* Clear PL, MSIZE, PSIZE, MINC, PINC, CIRC and DIR bits */
 208:Drivers/STM32F1xx_HAL_Driver/Src/stm32f1xx_hal_dma.c ****   tmp &= ((uint32_t)~(DMA_CCR_PL    | DMA_CCR_MSIZE  | DMA_CCR_PSIZE  | \
 209:Drivers/STM32F1xx_HAL_Driver/Src/stm32f1xx_hal_dma.c ****                       DMA_CCR_MINC  | DMA_CCR_PINC   | DMA_CCR_CIRC   | \
 210:Drivers/STM32F1xx_HAL_Driver/Src/stm32f1xx_hal_dma.c ****                       DMA_CCR_DIR));
 211:Drivers/STM32F1xx_HAL_Driver/Src/stm32f1xx_hal_dma.c **** 
 212:Drivers/STM32F1xx_HAL_Driver/Src/stm32f1xx_hal_dma.c ****   /* Prepare the DMA Channel configuration */
 213:Drivers/STM32F1xx_HAL_Driver/Src/stm32f1xx_hal_dma.c ****   tmp |=  hdma->Init.Direction        |
 214:Drivers/STM32F1xx_HAL_Driver/Src/stm32f1xx_hal_dma.c ****           hdma->Init.PeriphInc           | hdma->Init.MemInc           |
 215:Drivers/STM32F1xx_HAL_Driver/Src/stm32f1xx_hal_dma.c ****           hdma->Init.PeriphDataAlignment | hdma->Init.MemDataAlignment |
 216:Drivers/STM32F1xx_HAL_Driver/Src/stm32f1xx_hal_dma.c ****           hdma->Init.Mode                | hdma->Init.Priority;
 217:Drivers/STM32F1xx_HAL_Driver/Src/stm32f1xx_hal_dma.c **** 
 218:Drivers/STM32F1xx_HAL_Driver/Src/stm32f1xx_hal_dma.c ****   /* Write to DMA Channel CR register */
 219:Drivers/STM32F1xx_HAL_Driver/Src/stm32f1xx_hal_dma.c ****   hdma->Instance->CCR = tmp;
 220:Drivers/STM32F1xx_HAL_Driver/Src/stm32f1xx_hal_dma.c **** 
 221:Drivers/STM32F1xx_HAL_Driver/Src/stm32f1xx_hal_dma.c **** 
 222:Drivers/STM32F1xx_HAL_Driver/Src/stm32f1xx_hal_dma.c ****   /* Clean callbacks */
 223:Drivers/STM32F1xx_HAL_Driver/Src/stm32f1xx_hal_dma.c ****   hdma->XferCpltCallback = NULL;
 224:Drivers/STM32F1xx_HAL_Driver/Src/stm32f1xx_hal_dma.c ****   hdma->XferHalfCpltCallback = NULL;
 225:Drivers/STM32F1xx_HAL_Driver/Src/stm32f1xx_hal_dma.c ****   hdma->XferErrorCallback = NULL;
 226:Drivers/STM32F1xx_HAL_Driver/Src/stm32f1xx_hal_dma.c ****   hdma->XferAbortCallback = NULL;
 227:Drivers/STM32F1xx_HAL_Driver/Src/stm32f1xx_hal_dma.c **** 
 228:Drivers/STM32F1xx_HAL_Driver/Src/stm32f1xx_hal_dma.c ****   /* Initialise the error code */
 229:Drivers/STM32F1xx_HAL_Driver/Src/stm32f1xx_hal_dma.c ****   hdma->ErrorCode = HAL_DMA_ERROR_NONE;
 230:Drivers/STM32F1xx_HAL_Driver/Src/stm32f1xx_hal_dma.c **** 
 231:Drivers/STM32F1xx_HAL_Driver/Src/stm32f1xx_hal_dma.c ****   /* Initialize the DMA state*/
 232:Drivers/STM32F1xx_HAL_Driver/Src/stm32f1xx_hal_dma.c ****   hdma->State = HAL_DMA_STATE_READY;
 233:Drivers/STM32F1xx_HAL_Driver/Src/stm32f1xx_hal_dma.c ****   /* Allocate lock resource and initialize it */
 234:Drivers/STM32F1xx_HAL_Driver/Src/stm32f1xx_hal_dma.c ****   hdma->Lock = HAL_UNLOCKED;
 235:Drivers/STM32F1xx_HAL_Driver/Src/stm32f1xx_hal_dma.c ****   
 236:Drivers/STM32F1xx_HAL_Driver/Src/stm32f1xx_hal_dma.c ****   return HAL_OK;
 237:Drivers/STM32F1xx_HAL_Driver/Src/stm32f1xx_hal_dma.c **** }
 238:Drivers/STM32F1xx_HAL_Driver/Src/stm32f1xx_hal_dma.c **** 
 239:Drivers/STM32F1xx_HAL_Driver/Src/stm32f1xx_hal_dma.c **** /**
 240:Drivers/STM32F1xx_HAL_Driver/Src/stm32f1xx_hal_dma.c ****   * @brief  DeInitialize the DMA peripheral.
 241:Drivers/STM32F1xx_HAL_Driver/Src/stm32f1xx_hal_dma.c ****   * @param  hdma: pointer to a DMA_HandleTypeDef structure that contains
 242:Drivers/STM32F1xx_HAL_Driver/Src/stm32f1xx_hal_dma.c ****   *               the configuration information for the specified DMA Channel.
 243:Drivers/STM32F1xx_HAL_Driver/Src/stm32f1xx_hal_dma.c ****   * @retval HAL status
 244:Drivers/STM32F1xx_HAL_Driver/Src/stm32f1xx_hal_dma.c ****   */
 245:Drivers/STM32F1xx_HAL_Driver/Src/stm32f1xx_hal_dma.c **** HAL_StatusTypeDef HAL_DMA_DeInit(DMA_HandleTypeDef *hdma)
 246:Drivers/STM32F1xx_HAL_Driver/Src/stm32f1xx_hal_dma.c **** {
 247:Drivers/STM32F1xx_HAL_Driver/Src/stm32f1xx_hal_dma.c ****   /* Check the DMA handle allocation */
 248:Drivers/STM32F1xx_HAL_Driver/Src/stm32f1xx_hal_dma.c ****   if(hdma == NULL)
 249:Drivers/STM32F1xx_HAL_Driver/Src/stm32f1xx_hal_dma.c ****   {
 250:Drivers/STM32F1xx_HAL_Driver/Src/stm32f1xx_hal_dma.c ****     return HAL_ERROR;
 251:Drivers/STM32F1xx_HAL_Driver/Src/stm32f1xx_hal_dma.c ****   }
 252:Drivers/STM32F1xx_HAL_Driver/Src/stm32f1xx_hal_dma.c **** 
 253:Drivers/STM32F1xx_HAL_Driver/Src/stm32f1xx_hal_dma.c ****   /* Check the parameters */
 254:Drivers/STM32F1xx_HAL_Driver/Src/stm32f1xx_hal_dma.c ****   assert_param(IS_DMA_ALL_INSTANCE(hdma->Instance));
 255:Drivers/STM32F1xx_HAL_Driver/Src/stm32f1xx_hal_dma.c **** 
 256:Drivers/STM32F1xx_HAL_Driver/Src/stm32f1xx_hal_dma.c ****   /* Disable the selected DMA Channelx */
 257:Drivers/STM32F1xx_HAL_Driver/Src/stm32f1xx_hal_dma.c ****   __HAL_DMA_DISABLE(hdma);
 258:Drivers/STM32F1xx_HAL_Driver/Src/stm32f1xx_hal_dma.c **** 
 259:Drivers/STM32F1xx_HAL_Driver/Src/stm32f1xx_hal_dma.c ****   /* Reset DMA Channel control register */
 260:Drivers/STM32F1xx_HAL_Driver/Src/stm32f1xx_hal_dma.c ****   hdma->Instance->CCR  = 0U;
 261:Drivers/STM32F1xx_HAL_Driver/Src/stm32f1xx_hal_dma.c **** 
ARM GAS  /tmp/cc6lcHVI.s 			page 6


 262:Drivers/STM32F1xx_HAL_Driver/Src/stm32f1xx_hal_dma.c ****   /* Reset DMA Channel Number of Data to Transfer register */
 263:Drivers/STM32F1xx_HAL_Driver/Src/stm32f1xx_hal_dma.c ****   hdma->Instance->CNDTR = 0U;
 264:Drivers/STM32F1xx_HAL_Driver/Src/stm32f1xx_hal_dma.c **** 
 265:Drivers/STM32F1xx_HAL_Driver/Src/stm32f1xx_hal_dma.c ****   /* Reset DMA Channel peripheral address register */
 266:Drivers/STM32F1xx_HAL_Driver/Src/stm32f1xx_hal_dma.c ****   hdma->Instance->CPAR  = 0U;
 267:Drivers/STM32F1xx_HAL_Driver/Src/stm32f1xx_hal_dma.c **** 
 268:Drivers/STM32F1xx_HAL_Driver/Src/stm32f1xx_hal_dma.c ****   /* Reset DMA Channel memory address register */
 269:Drivers/STM32F1xx_HAL_Driver/Src/stm32f1xx_hal_dma.c ****   hdma->Instance->CMAR = 0U;
 270:Drivers/STM32F1xx_HAL_Driver/Src/stm32f1xx_hal_dma.c **** 
 271:Drivers/STM32F1xx_HAL_Driver/Src/stm32f1xx_hal_dma.c **** #if defined (STM32F101xE) || defined (STM32F101xG) || defined (STM32F103xE) || defined (STM32F103xG
 272:Drivers/STM32F1xx_HAL_Driver/Src/stm32f1xx_hal_dma.c ****   /* calculation of the channel index */
 273:Drivers/STM32F1xx_HAL_Driver/Src/stm32f1xx_hal_dma.c ****   if ((uint32_t)(hdma->Instance) < (uint32_t)(DMA2_Channel1))
 274:Drivers/STM32F1xx_HAL_Driver/Src/stm32f1xx_hal_dma.c ****   {
 275:Drivers/STM32F1xx_HAL_Driver/Src/stm32f1xx_hal_dma.c ****     /* DMA1 */
 276:Drivers/STM32F1xx_HAL_Driver/Src/stm32f1xx_hal_dma.c ****     hdma->ChannelIndex = (((uint32_t)hdma->Instance - (uint32_t)DMA1_Channel1) / ((uint32_t)DMA1_Ch
 277:Drivers/STM32F1xx_HAL_Driver/Src/stm32f1xx_hal_dma.c ****     hdma->DmaBaseAddress = DMA1;
 278:Drivers/STM32F1xx_HAL_Driver/Src/stm32f1xx_hal_dma.c ****   }
 279:Drivers/STM32F1xx_HAL_Driver/Src/stm32f1xx_hal_dma.c ****   else 
 280:Drivers/STM32F1xx_HAL_Driver/Src/stm32f1xx_hal_dma.c ****   {
 281:Drivers/STM32F1xx_HAL_Driver/Src/stm32f1xx_hal_dma.c ****     /* DMA2 */
 282:Drivers/STM32F1xx_HAL_Driver/Src/stm32f1xx_hal_dma.c ****     hdma->ChannelIndex = (((uint32_t)hdma->Instance - (uint32_t)DMA2_Channel1) / ((uint32_t)DMA2_Ch
 283:Drivers/STM32F1xx_HAL_Driver/Src/stm32f1xx_hal_dma.c ****     hdma->DmaBaseAddress = DMA2;
 284:Drivers/STM32F1xx_HAL_Driver/Src/stm32f1xx_hal_dma.c ****   }
 285:Drivers/STM32F1xx_HAL_Driver/Src/stm32f1xx_hal_dma.c **** #else
 286:Drivers/STM32F1xx_HAL_Driver/Src/stm32f1xx_hal_dma.c ****   /* DMA1 */
 287:Drivers/STM32F1xx_HAL_Driver/Src/stm32f1xx_hal_dma.c ****   hdma->ChannelIndex = (((uint32_t)hdma->Instance - (uint32_t)DMA1_Channel1) / ((uint32_t)DMA1_Chan
 288:Drivers/STM32F1xx_HAL_Driver/Src/stm32f1xx_hal_dma.c ****   hdma->DmaBaseAddress = DMA1;
 289:Drivers/STM32F1xx_HAL_Driver/Src/stm32f1xx_hal_dma.c **** #endif /* STM32F101xE || STM32F101xG || STM32F103xE || STM32F103xG || STM32F100xE || STM32F105xC ||
 290:Drivers/STM32F1xx_HAL_Driver/Src/stm32f1xx_hal_dma.c **** 
 291:Drivers/STM32F1xx_HAL_Driver/Src/stm32f1xx_hal_dma.c ****   /* Clear all flags */
 292:Drivers/STM32F1xx_HAL_Driver/Src/stm32f1xx_hal_dma.c ****   hdma->DmaBaseAddress->IFCR = (DMA_ISR_GIF1 << (hdma->ChannelIndex));
 293:Drivers/STM32F1xx_HAL_Driver/Src/stm32f1xx_hal_dma.c **** 
 294:Drivers/STM32F1xx_HAL_Driver/Src/stm32f1xx_hal_dma.c ****   /* Initialize the error code */
 295:Drivers/STM32F1xx_HAL_Driver/Src/stm32f1xx_hal_dma.c ****   hdma->ErrorCode = HAL_DMA_ERROR_NONE;
 296:Drivers/STM32F1xx_HAL_Driver/Src/stm32f1xx_hal_dma.c **** 
 297:Drivers/STM32F1xx_HAL_Driver/Src/stm32f1xx_hal_dma.c ****   /* Initialize the DMA state */
 298:Drivers/STM32F1xx_HAL_Driver/Src/stm32f1xx_hal_dma.c ****   hdma->State = HAL_DMA_STATE_RESET;
 299:Drivers/STM32F1xx_HAL_Driver/Src/stm32f1xx_hal_dma.c **** 
 300:Drivers/STM32F1xx_HAL_Driver/Src/stm32f1xx_hal_dma.c ****   /* Release Lock */
 301:Drivers/STM32F1xx_HAL_Driver/Src/stm32f1xx_hal_dma.c ****   __HAL_UNLOCK(hdma);
 302:Drivers/STM32F1xx_HAL_Driver/Src/stm32f1xx_hal_dma.c **** 
 303:Drivers/STM32F1xx_HAL_Driver/Src/stm32f1xx_hal_dma.c ****   return HAL_OK;
 304:Drivers/STM32F1xx_HAL_Driver/Src/stm32f1xx_hal_dma.c **** }
 305:Drivers/STM32F1xx_HAL_Driver/Src/stm32f1xx_hal_dma.c **** 
 306:Drivers/STM32F1xx_HAL_Driver/Src/stm32f1xx_hal_dma.c **** /**
 307:Drivers/STM32F1xx_HAL_Driver/Src/stm32f1xx_hal_dma.c ****   * @}
 308:Drivers/STM32F1xx_HAL_Driver/Src/stm32f1xx_hal_dma.c ****   */
 309:Drivers/STM32F1xx_HAL_Driver/Src/stm32f1xx_hal_dma.c **** 
 310:Drivers/STM32F1xx_HAL_Driver/Src/stm32f1xx_hal_dma.c **** /** @defgroup DMA_Exported_Functions_Group2 Input and Output operation functions
 311:Drivers/STM32F1xx_HAL_Driver/Src/stm32f1xx_hal_dma.c ****   *  @brief   Input and Output operation functions
 312:Drivers/STM32F1xx_HAL_Driver/Src/stm32f1xx_hal_dma.c ****   *
 313:Drivers/STM32F1xx_HAL_Driver/Src/stm32f1xx_hal_dma.c **** @verbatim
 314:Drivers/STM32F1xx_HAL_Driver/Src/stm32f1xx_hal_dma.c ****  ===============================================================================
 315:Drivers/STM32F1xx_HAL_Driver/Src/stm32f1xx_hal_dma.c ****                       #####  IO operation functions  #####
 316:Drivers/STM32F1xx_HAL_Driver/Src/stm32f1xx_hal_dma.c ****  ===============================================================================
 317:Drivers/STM32F1xx_HAL_Driver/Src/stm32f1xx_hal_dma.c ****     [..]  This section provides functions allowing to:
 318:Drivers/STM32F1xx_HAL_Driver/Src/stm32f1xx_hal_dma.c ****       (+) Configure the source, destination address and data length and Start DMA transfer
ARM GAS  /tmp/cc6lcHVI.s 			page 7


 319:Drivers/STM32F1xx_HAL_Driver/Src/stm32f1xx_hal_dma.c ****       (+) Configure the source, destination address and data length and
 320:Drivers/STM32F1xx_HAL_Driver/Src/stm32f1xx_hal_dma.c ****           Start DMA transfer with interrupt
 321:Drivers/STM32F1xx_HAL_Driver/Src/stm32f1xx_hal_dma.c ****       (+) Abort DMA transfer
 322:Drivers/STM32F1xx_HAL_Driver/Src/stm32f1xx_hal_dma.c ****       (+) Poll for transfer complete
 323:Drivers/STM32F1xx_HAL_Driver/Src/stm32f1xx_hal_dma.c ****       (+) Handle DMA interrupt request
 324:Drivers/STM32F1xx_HAL_Driver/Src/stm32f1xx_hal_dma.c **** 
 325:Drivers/STM32F1xx_HAL_Driver/Src/stm32f1xx_hal_dma.c **** @endverbatim
 326:Drivers/STM32F1xx_HAL_Driver/Src/stm32f1xx_hal_dma.c ****   * @{
 327:Drivers/STM32F1xx_HAL_Driver/Src/stm32f1xx_hal_dma.c ****   */
 328:Drivers/STM32F1xx_HAL_Driver/Src/stm32f1xx_hal_dma.c **** 
 329:Drivers/STM32F1xx_HAL_Driver/Src/stm32f1xx_hal_dma.c **** /**
 330:Drivers/STM32F1xx_HAL_Driver/Src/stm32f1xx_hal_dma.c ****   * @brief  Start the DMA Transfer.
 331:Drivers/STM32F1xx_HAL_Driver/Src/stm32f1xx_hal_dma.c ****   * @param  hdma: pointer to a DMA_HandleTypeDef structure that contains
 332:Drivers/STM32F1xx_HAL_Driver/Src/stm32f1xx_hal_dma.c ****   *               the configuration information for the specified DMA Channel.
 333:Drivers/STM32F1xx_HAL_Driver/Src/stm32f1xx_hal_dma.c ****   * @param  SrcAddress: The source memory Buffer address
 334:Drivers/STM32F1xx_HAL_Driver/Src/stm32f1xx_hal_dma.c ****   * @param  DstAddress: The destination memory Buffer address
 335:Drivers/STM32F1xx_HAL_Driver/Src/stm32f1xx_hal_dma.c ****   * @param  DataLength: The length of data to be transferred from source to destination
 336:Drivers/STM32F1xx_HAL_Driver/Src/stm32f1xx_hal_dma.c ****   * @retval HAL status
 337:Drivers/STM32F1xx_HAL_Driver/Src/stm32f1xx_hal_dma.c ****   */
 338:Drivers/STM32F1xx_HAL_Driver/Src/stm32f1xx_hal_dma.c **** HAL_StatusTypeDef HAL_DMA_Start(DMA_HandleTypeDef *hdma, uint32_t SrcAddress, uint32_t DstAddress, 
 339:Drivers/STM32F1xx_HAL_Driver/Src/stm32f1xx_hal_dma.c **** {
 340:Drivers/STM32F1xx_HAL_Driver/Src/stm32f1xx_hal_dma.c ****   HAL_StatusTypeDef status = HAL_OK;
 341:Drivers/STM32F1xx_HAL_Driver/Src/stm32f1xx_hal_dma.c **** 
 342:Drivers/STM32F1xx_HAL_Driver/Src/stm32f1xx_hal_dma.c ****   /* Check the parameters */
 343:Drivers/STM32F1xx_HAL_Driver/Src/stm32f1xx_hal_dma.c ****   assert_param(IS_DMA_BUFFER_SIZE(DataLength));
 344:Drivers/STM32F1xx_HAL_Driver/Src/stm32f1xx_hal_dma.c **** 
 345:Drivers/STM32F1xx_HAL_Driver/Src/stm32f1xx_hal_dma.c ****   /* Process locked */
 346:Drivers/STM32F1xx_HAL_Driver/Src/stm32f1xx_hal_dma.c ****   __HAL_LOCK(hdma);
 347:Drivers/STM32F1xx_HAL_Driver/Src/stm32f1xx_hal_dma.c **** 
 348:Drivers/STM32F1xx_HAL_Driver/Src/stm32f1xx_hal_dma.c ****   if(HAL_DMA_STATE_READY == hdma->State)
 349:Drivers/STM32F1xx_HAL_Driver/Src/stm32f1xx_hal_dma.c ****   {
 350:Drivers/STM32F1xx_HAL_Driver/Src/stm32f1xx_hal_dma.c ****     /* Change DMA peripheral state */
 351:Drivers/STM32F1xx_HAL_Driver/Src/stm32f1xx_hal_dma.c ****     hdma->State = HAL_DMA_STATE_BUSY;
 352:Drivers/STM32F1xx_HAL_Driver/Src/stm32f1xx_hal_dma.c ****     hdma->ErrorCode = HAL_DMA_ERROR_NONE;
 353:Drivers/STM32F1xx_HAL_Driver/Src/stm32f1xx_hal_dma.c ****             
 354:Drivers/STM32F1xx_HAL_Driver/Src/stm32f1xx_hal_dma.c ****     /* Disable the peripheral */
 355:Drivers/STM32F1xx_HAL_Driver/Src/stm32f1xx_hal_dma.c ****     __HAL_DMA_DISABLE(hdma);
 356:Drivers/STM32F1xx_HAL_Driver/Src/stm32f1xx_hal_dma.c ****     
 357:Drivers/STM32F1xx_HAL_Driver/Src/stm32f1xx_hal_dma.c ****     /* Configure the source, destination address and the data length & clear flags*/
 358:Drivers/STM32F1xx_HAL_Driver/Src/stm32f1xx_hal_dma.c ****     DMA_SetConfig(hdma, SrcAddress, DstAddress, DataLength);
 359:Drivers/STM32F1xx_HAL_Driver/Src/stm32f1xx_hal_dma.c ****     
 360:Drivers/STM32F1xx_HAL_Driver/Src/stm32f1xx_hal_dma.c ****     /* Enable the Peripheral */
 361:Drivers/STM32F1xx_HAL_Driver/Src/stm32f1xx_hal_dma.c ****     __HAL_DMA_ENABLE(hdma);
 362:Drivers/STM32F1xx_HAL_Driver/Src/stm32f1xx_hal_dma.c ****   }
 363:Drivers/STM32F1xx_HAL_Driver/Src/stm32f1xx_hal_dma.c ****   else
 364:Drivers/STM32F1xx_HAL_Driver/Src/stm32f1xx_hal_dma.c ****   {
 365:Drivers/STM32F1xx_HAL_Driver/Src/stm32f1xx_hal_dma.c ****    /* Process Unlocked */
 366:Drivers/STM32F1xx_HAL_Driver/Src/stm32f1xx_hal_dma.c ****    __HAL_UNLOCK(hdma);  
 367:Drivers/STM32F1xx_HAL_Driver/Src/stm32f1xx_hal_dma.c ****    status = HAL_BUSY;
 368:Drivers/STM32F1xx_HAL_Driver/Src/stm32f1xx_hal_dma.c ****   }  
 369:Drivers/STM32F1xx_HAL_Driver/Src/stm32f1xx_hal_dma.c ****   return status;
 370:Drivers/STM32F1xx_HAL_Driver/Src/stm32f1xx_hal_dma.c **** }
 371:Drivers/STM32F1xx_HAL_Driver/Src/stm32f1xx_hal_dma.c **** 
 372:Drivers/STM32F1xx_HAL_Driver/Src/stm32f1xx_hal_dma.c **** /**
 373:Drivers/STM32F1xx_HAL_Driver/Src/stm32f1xx_hal_dma.c ****   * @brief  Start the DMA Transfer with interrupt enabled.
 374:Drivers/STM32F1xx_HAL_Driver/Src/stm32f1xx_hal_dma.c ****   * @param  hdma: pointer to a DMA_HandleTypeDef structure that contains
 375:Drivers/STM32F1xx_HAL_Driver/Src/stm32f1xx_hal_dma.c ****   *               the configuration information for the specified DMA Channel.
ARM GAS  /tmp/cc6lcHVI.s 			page 8


 376:Drivers/STM32F1xx_HAL_Driver/Src/stm32f1xx_hal_dma.c ****   * @param  SrcAddress: The source memory Buffer address
 377:Drivers/STM32F1xx_HAL_Driver/Src/stm32f1xx_hal_dma.c ****   * @param  DstAddress: The destination memory Buffer address
 378:Drivers/STM32F1xx_HAL_Driver/Src/stm32f1xx_hal_dma.c ****   * @param  DataLength: The length of data to be transferred from source to destination
 379:Drivers/STM32F1xx_HAL_Driver/Src/stm32f1xx_hal_dma.c ****   * @retval HAL status
 380:Drivers/STM32F1xx_HAL_Driver/Src/stm32f1xx_hal_dma.c ****   */
 381:Drivers/STM32F1xx_HAL_Driver/Src/stm32f1xx_hal_dma.c **** HAL_StatusTypeDef HAL_DMA_Start_IT(DMA_HandleTypeDef *hdma, uint32_t SrcAddress, uint32_t DstAddres
 382:Drivers/STM32F1xx_HAL_Driver/Src/stm32f1xx_hal_dma.c **** {
 383:Drivers/STM32F1xx_HAL_Driver/Src/stm32f1xx_hal_dma.c ****   HAL_StatusTypeDef status = HAL_OK;
 384:Drivers/STM32F1xx_HAL_Driver/Src/stm32f1xx_hal_dma.c **** 
 385:Drivers/STM32F1xx_HAL_Driver/Src/stm32f1xx_hal_dma.c ****   /* Check the parameters */
 386:Drivers/STM32F1xx_HAL_Driver/Src/stm32f1xx_hal_dma.c ****   assert_param(IS_DMA_BUFFER_SIZE(DataLength));
 387:Drivers/STM32F1xx_HAL_Driver/Src/stm32f1xx_hal_dma.c **** 
 388:Drivers/STM32F1xx_HAL_Driver/Src/stm32f1xx_hal_dma.c ****   /* Process locked */
 389:Drivers/STM32F1xx_HAL_Driver/Src/stm32f1xx_hal_dma.c ****   __HAL_LOCK(hdma);
 390:Drivers/STM32F1xx_HAL_Driver/Src/stm32f1xx_hal_dma.c ****   
 391:Drivers/STM32F1xx_HAL_Driver/Src/stm32f1xx_hal_dma.c ****   if(HAL_DMA_STATE_READY == hdma->State)
 392:Drivers/STM32F1xx_HAL_Driver/Src/stm32f1xx_hal_dma.c ****   {
 393:Drivers/STM32F1xx_HAL_Driver/Src/stm32f1xx_hal_dma.c ****     /* Change DMA peripheral state */
 394:Drivers/STM32F1xx_HAL_Driver/Src/stm32f1xx_hal_dma.c ****     hdma->State = HAL_DMA_STATE_BUSY;
 395:Drivers/STM32F1xx_HAL_Driver/Src/stm32f1xx_hal_dma.c ****     hdma->ErrorCode = HAL_DMA_ERROR_NONE;
 396:Drivers/STM32F1xx_HAL_Driver/Src/stm32f1xx_hal_dma.c ****     
 397:Drivers/STM32F1xx_HAL_Driver/Src/stm32f1xx_hal_dma.c ****     /* Disable the peripheral */
 398:Drivers/STM32F1xx_HAL_Driver/Src/stm32f1xx_hal_dma.c ****     __HAL_DMA_DISABLE(hdma);
 399:Drivers/STM32F1xx_HAL_Driver/Src/stm32f1xx_hal_dma.c ****     
 400:Drivers/STM32F1xx_HAL_Driver/Src/stm32f1xx_hal_dma.c ****     /* Configure the source, destination address and the data length & clear flags*/
 401:Drivers/STM32F1xx_HAL_Driver/Src/stm32f1xx_hal_dma.c ****     DMA_SetConfig(hdma, SrcAddress, DstAddress, DataLength);
 402:Drivers/STM32F1xx_HAL_Driver/Src/stm32f1xx_hal_dma.c ****     
 403:Drivers/STM32F1xx_HAL_Driver/Src/stm32f1xx_hal_dma.c ****     /* Enable the transfer complete interrupt */
 404:Drivers/STM32F1xx_HAL_Driver/Src/stm32f1xx_hal_dma.c ****     /* Enable the transfer Error interrupt */
 405:Drivers/STM32F1xx_HAL_Driver/Src/stm32f1xx_hal_dma.c ****     if(NULL != hdma->XferHalfCpltCallback)
 406:Drivers/STM32F1xx_HAL_Driver/Src/stm32f1xx_hal_dma.c ****     {
 407:Drivers/STM32F1xx_HAL_Driver/Src/stm32f1xx_hal_dma.c ****       /* Enable the Half transfer complete interrupt as well */
 408:Drivers/STM32F1xx_HAL_Driver/Src/stm32f1xx_hal_dma.c ****       __HAL_DMA_ENABLE_IT(hdma, (DMA_IT_TC | DMA_IT_HT | DMA_IT_TE));
 409:Drivers/STM32F1xx_HAL_Driver/Src/stm32f1xx_hal_dma.c ****     }
 410:Drivers/STM32F1xx_HAL_Driver/Src/stm32f1xx_hal_dma.c ****     else
 411:Drivers/STM32F1xx_HAL_Driver/Src/stm32f1xx_hal_dma.c ****     {
 412:Drivers/STM32F1xx_HAL_Driver/Src/stm32f1xx_hal_dma.c ****       __HAL_DMA_DISABLE_IT(hdma, DMA_IT_HT);
 413:Drivers/STM32F1xx_HAL_Driver/Src/stm32f1xx_hal_dma.c ****       __HAL_DMA_ENABLE_IT(hdma, (DMA_IT_TC | DMA_IT_TE));
 414:Drivers/STM32F1xx_HAL_Driver/Src/stm32f1xx_hal_dma.c ****     }
 415:Drivers/STM32F1xx_HAL_Driver/Src/stm32f1xx_hal_dma.c ****     /* Enable the Peripheral */
 416:Drivers/STM32F1xx_HAL_Driver/Src/stm32f1xx_hal_dma.c ****     __HAL_DMA_ENABLE(hdma);
 417:Drivers/STM32F1xx_HAL_Driver/Src/stm32f1xx_hal_dma.c ****   }
 418:Drivers/STM32F1xx_HAL_Driver/Src/stm32f1xx_hal_dma.c ****   else
 419:Drivers/STM32F1xx_HAL_Driver/Src/stm32f1xx_hal_dma.c ****   {      
 420:Drivers/STM32F1xx_HAL_Driver/Src/stm32f1xx_hal_dma.c ****     /* Process Unlocked */
 421:Drivers/STM32F1xx_HAL_Driver/Src/stm32f1xx_hal_dma.c ****     __HAL_UNLOCK(hdma); 
 422:Drivers/STM32F1xx_HAL_Driver/Src/stm32f1xx_hal_dma.c **** 
 423:Drivers/STM32F1xx_HAL_Driver/Src/stm32f1xx_hal_dma.c ****     /* Remain BUSY */
 424:Drivers/STM32F1xx_HAL_Driver/Src/stm32f1xx_hal_dma.c ****     status = HAL_BUSY;
 425:Drivers/STM32F1xx_HAL_Driver/Src/stm32f1xx_hal_dma.c ****   }    
 426:Drivers/STM32F1xx_HAL_Driver/Src/stm32f1xx_hal_dma.c ****   return status;
 427:Drivers/STM32F1xx_HAL_Driver/Src/stm32f1xx_hal_dma.c **** }
 428:Drivers/STM32F1xx_HAL_Driver/Src/stm32f1xx_hal_dma.c **** 
 429:Drivers/STM32F1xx_HAL_Driver/Src/stm32f1xx_hal_dma.c **** /**
 430:Drivers/STM32F1xx_HAL_Driver/Src/stm32f1xx_hal_dma.c ****   * @brief  Abort the DMA Transfer.
 431:Drivers/STM32F1xx_HAL_Driver/Src/stm32f1xx_hal_dma.c ****   * @param  hdma: pointer to a DMA_HandleTypeDef structure that contains
 432:Drivers/STM32F1xx_HAL_Driver/Src/stm32f1xx_hal_dma.c ****   *               the configuration information for the specified DMA Channel.
ARM GAS  /tmp/cc6lcHVI.s 			page 9


 433:Drivers/STM32F1xx_HAL_Driver/Src/stm32f1xx_hal_dma.c ****   * @retval HAL status
 434:Drivers/STM32F1xx_HAL_Driver/Src/stm32f1xx_hal_dma.c ****   */
 435:Drivers/STM32F1xx_HAL_Driver/Src/stm32f1xx_hal_dma.c **** HAL_StatusTypeDef HAL_DMA_Abort(DMA_HandleTypeDef *hdma)
 436:Drivers/STM32F1xx_HAL_Driver/Src/stm32f1xx_hal_dma.c **** {
 437:Drivers/STM32F1xx_HAL_Driver/Src/stm32f1xx_hal_dma.c ****   HAL_StatusTypeDef status = HAL_OK;
 438:Drivers/STM32F1xx_HAL_Driver/Src/stm32f1xx_hal_dma.c **** 
 439:Drivers/STM32F1xx_HAL_Driver/Src/stm32f1xx_hal_dma.c ****   /* Disable DMA IT */
 440:Drivers/STM32F1xx_HAL_Driver/Src/stm32f1xx_hal_dma.c ****   __HAL_DMA_DISABLE_IT(hdma, (DMA_IT_TC | DMA_IT_HT | DMA_IT_TE));
 441:Drivers/STM32F1xx_HAL_Driver/Src/stm32f1xx_hal_dma.c ****     
 442:Drivers/STM32F1xx_HAL_Driver/Src/stm32f1xx_hal_dma.c ****   /* Disable the channel */
 443:Drivers/STM32F1xx_HAL_Driver/Src/stm32f1xx_hal_dma.c ****   __HAL_DMA_DISABLE(hdma);
 444:Drivers/STM32F1xx_HAL_Driver/Src/stm32f1xx_hal_dma.c ****     
 445:Drivers/STM32F1xx_HAL_Driver/Src/stm32f1xx_hal_dma.c ****   /* Clear all flags */
 446:Drivers/STM32F1xx_HAL_Driver/Src/stm32f1xx_hal_dma.c ****   hdma->DmaBaseAddress->IFCR = (DMA_ISR_GIF1 << hdma->ChannelIndex);
 447:Drivers/STM32F1xx_HAL_Driver/Src/stm32f1xx_hal_dma.c **** 
 448:Drivers/STM32F1xx_HAL_Driver/Src/stm32f1xx_hal_dma.c ****   /* Change the DMA state */
 449:Drivers/STM32F1xx_HAL_Driver/Src/stm32f1xx_hal_dma.c ****   hdma->State = HAL_DMA_STATE_READY;
 450:Drivers/STM32F1xx_HAL_Driver/Src/stm32f1xx_hal_dma.c **** 
 451:Drivers/STM32F1xx_HAL_Driver/Src/stm32f1xx_hal_dma.c ****   /* Process Unlocked */
 452:Drivers/STM32F1xx_HAL_Driver/Src/stm32f1xx_hal_dma.c ****   __HAL_UNLOCK(hdma);      
 453:Drivers/STM32F1xx_HAL_Driver/Src/stm32f1xx_hal_dma.c ****   
 454:Drivers/STM32F1xx_HAL_Driver/Src/stm32f1xx_hal_dma.c ****   return status; 
 455:Drivers/STM32F1xx_HAL_Driver/Src/stm32f1xx_hal_dma.c **** }
 456:Drivers/STM32F1xx_HAL_Driver/Src/stm32f1xx_hal_dma.c **** 
 457:Drivers/STM32F1xx_HAL_Driver/Src/stm32f1xx_hal_dma.c **** /**
 458:Drivers/STM32F1xx_HAL_Driver/Src/stm32f1xx_hal_dma.c ****   * @brief  Aborts the DMA Transfer in Interrupt mode.
 459:Drivers/STM32F1xx_HAL_Driver/Src/stm32f1xx_hal_dma.c ****   * @param  hdma  : pointer to a DMA_HandleTypeDef structure that contains
 460:Drivers/STM32F1xx_HAL_Driver/Src/stm32f1xx_hal_dma.c ****   *                 the configuration information for the specified DMA Channel.
 461:Drivers/STM32F1xx_HAL_Driver/Src/stm32f1xx_hal_dma.c ****   * @retval HAL status
 462:Drivers/STM32F1xx_HAL_Driver/Src/stm32f1xx_hal_dma.c ****   */
 463:Drivers/STM32F1xx_HAL_Driver/Src/stm32f1xx_hal_dma.c **** HAL_StatusTypeDef HAL_DMA_Abort_IT(DMA_HandleTypeDef *hdma)
 464:Drivers/STM32F1xx_HAL_Driver/Src/stm32f1xx_hal_dma.c **** {  
 465:Drivers/STM32F1xx_HAL_Driver/Src/stm32f1xx_hal_dma.c ****   HAL_StatusTypeDef status = HAL_OK;
 466:Drivers/STM32F1xx_HAL_Driver/Src/stm32f1xx_hal_dma.c ****   
 467:Drivers/STM32F1xx_HAL_Driver/Src/stm32f1xx_hal_dma.c ****   if(HAL_DMA_STATE_BUSY != hdma->State)
 468:Drivers/STM32F1xx_HAL_Driver/Src/stm32f1xx_hal_dma.c ****   {
 469:Drivers/STM32F1xx_HAL_Driver/Src/stm32f1xx_hal_dma.c ****     /* no transfer ongoing */
 470:Drivers/STM32F1xx_HAL_Driver/Src/stm32f1xx_hal_dma.c ****     hdma->ErrorCode = HAL_DMA_ERROR_NO_XFER;
 471:Drivers/STM32F1xx_HAL_Driver/Src/stm32f1xx_hal_dma.c ****         
 472:Drivers/STM32F1xx_HAL_Driver/Src/stm32f1xx_hal_dma.c ****     status = HAL_ERROR;
 473:Drivers/STM32F1xx_HAL_Driver/Src/stm32f1xx_hal_dma.c ****   }
 474:Drivers/STM32F1xx_HAL_Driver/Src/stm32f1xx_hal_dma.c ****   else
 475:Drivers/STM32F1xx_HAL_Driver/Src/stm32f1xx_hal_dma.c ****   { 
 476:Drivers/STM32F1xx_HAL_Driver/Src/stm32f1xx_hal_dma.c ****     /* Disable DMA IT */
 477:Drivers/STM32F1xx_HAL_Driver/Src/stm32f1xx_hal_dma.c ****     __HAL_DMA_DISABLE_IT(hdma, (DMA_IT_TC | DMA_IT_HT | DMA_IT_TE));
 478:Drivers/STM32F1xx_HAL_Driver/Src/stm32f1xx_hal_dma.c **** 
 479:Drivers/STM32F1xx_HAL_Driver/Src/stm32f1xx_hal_dma.c ****     /* Disable the channel */
 480:Drivers/STM32F1xx_HAL_Driver/Src/stm32f1xx_hal_dma.c ****     __HAL_DMA_DISABLE(hdma);
 481:Drivers/STM32F1xx_HAL_Driver/Src/stm32f1xx_hal_dma.c **** 
 482:Drivers/STM32F1xx_HAL_Driver/Src/stm32f1xx_hal_dma.c ****     /* Clear all flags */
 483:Drivers/STM32F1xx_HAL_Driver/Src/stm32f1xx_hal_dma.c ****     __HAL_DMA_CLEAR_FLAG(hdma, __HAL_DMA_GET_GI_FLAG_INDEX(hdma));
 484:Drivers/STM32F1xx_HAL_Driver/Src/stm32f1xx_hal_dma.c **** 
 485:Drivers/STM32F1xx_HAL_Driver/Src/stm32f1xx_hal_dma.c ****     /* Change the DMA state */
 486:Drivers/STM32F1xx_HAL_Driver/Src/stm32f1xx_hal_dma.c ****     hdma->State = HAL_DMA_STATE_READY;
 487:Drivers/STM32F1xx_HAL_Driver/Src/stm32f1xx_hal_dma.c **** 
 488:Drivers/STM32F1xx_HAL_Driver/Src/stm32f1xx_hal_dma.c ****     /* Process Unlocked */
 489:Drivers/STM32F1xx_HAL_Driver/Src/stm32f1xx_hal_dma.c ****     __HAL_UNLOCK(hdma);
ARM GAS  /tmp/cc6lcHVI.s 			page 10


 490:Drivers/STM32F1xx_HAL_Driver/Src/stm32f1xx_hal_dma.c **** 
 491:Drivers/STM32F1xx_HAL_Driver/Src/stm32f1xx_hal_dma.c ****     /* Call User Abort callback */
 492:Drivers/STM32F1xx_HAL_Driver/Src/stm32f1xx_hal_dma.c ****     if(hdma->XferAbortCallback != NULL)
 493:Drivers/STM32F1xx_HAL_Driver/Src/stm32f1xx_hal_dma.c ****     {
 494:Drivers/STM32F1xx_HAL_Driver/Src/stm32f1xx_hal_dma.c ****       hdma->XferAbortCallback(hdma);
 495:Drivers/STM32F1xx_HAL_Driver/Src/stm32f1xx_hal_dma.c ****     } 
 496:Drivers/STM32F1xx_HAL_Driver/Src/stm32f1xx_hal_dma.c ****   }
 497:Drivers/STM32F1xx_HAL_Driver/Src/stm32f1xx_hal_dma.c ****   return status;
 498:Drivers/STM32F1xx_HAL_Driver/Src/stm32f1xx_hal_dma.c **** }
 499:Drivers/STM32F1xx_HAL_Driver/Src/stm32f1xx_hal_dma.c **** 
 500:Drivers/STM32F1xx_HAL_Driver/Src/stm32f1xx_hal_dma.c **** /**
 501:Drivers/STM32F1xx_HAL_Driver/Src/stm32f1xx_hal_dma.c ****   * @brief  Polling for transfer complete.
 502:Drivers/STM32F1xx_HAL_Driver/Src/stm32f1xx_hal_dma.c ****   * @param  hdma:    pointer to a DMA_HandleTypeDef structure that contains
 503:Drivers/STM32F1xx_HAL_Driver/Src/stm32f1xx_hal_dma.c ****   *                  the configuration information for the specified DMA Channel.
 504:Drivers/STM32F1xx_HAL_Driver/Src/stm32f1xx_hal_dma.c ****   * @param  CompleteLevel: Specifies the DMA level complete.
 505:Drivers/STM32F1xx_HAL_Driver/Src/stm32f1xx_hal_dma.c ****   * @param  Timeout:       Timeout duration.
 506:Drivers/STM32F1xx_HAL_Driver/Src/stm32f1xx_hal_dma.c ****   * @retval HAL status
 507:Drivers/STM32F1xx_HAL_Driver/Src/stm32f1xx_hal_dma.c ****   */
 508:Drivers/STM32F1xx_HAL_Driver/Src/stm32f1xx_hal_dma.c **** HAL_StatusTypeDef HAL_DMA_PollForTransfer(DMA_HandleTypeDef *hdma, uint32_t CompleteLevel, uint32_t
 509:Drivers/STM32F1xx_HAL_Driver/Src/stm32f1xx_hal_dma.c **** {
 510:Drivers/STM32F1xx_HAL_Driver/Src/stm32f1xx_hal_dma.c ****   uint32_t temp;
 511:Drivers/STM32F1xx_HAL_Driver/Src/stm32f1xx_hal_dma.c ****   uint32_t tickstart = 0U;
 512:Drivers/STM32F1xx_HAL_Driver/Src/stm32f1xx_hal_dma.c **** 
 513:Drivers/STM32F1xx_HAL_Driver/Src/stm32f1xx_hal_dma.c ****   if(HAL_DMA_STATE_BUSY != hdma->State)
 514:Drivers/STM32F1xx_HAL_Driver/Src/stm32f1xx_hal_dma.c ****   {
 515:Drivers/STM32F1xx_HAL_Driver/Src/stm32f1xx_hal_dma.c ****     /* no transfer ongoing */
 516:Drivers/STM32F1xx_HAL_Driver/Src/stm32f1xx_hal_dma.c ****     hdma->ErrorCode = HAL_DMA_ERROR_NO_XFER;
 517:Drivers/STM32F1xx_HAL_Driver/Src/stm32f1xx_hal_dma.c ****     __HAL_UNLOCK(hdma);
 518:Drivers/STM32F1xx_HAL_Driver/Src/stm32f1xx_hal_dma.c ****     return HAL_ERROR;
 519:Drivers/STM32F1xx_HAL_Driver/Src/stm32f1xx_hal_dma.c ****   }
 520:Drivers/STM32F1xx_HAL_Driver/Src/stm32f1xx_hal_dma.c **** 
 521:Drivers/STM32F1xx_HAL_Driver/Src/stm32f1xx_hal_dma.c ****   /* Polling mode not supported in circular mode */
 522:Drivers/STM32F1xx_HAL_Driver/Src/stm32f1xx_hal_dma.c ****   if (RESET != (hdma->Instance->CCR & DMA_CCR_CIRC))
 523:Drivers/STM32F1xx_HAL_Driver/Src/stm32f1xx_hal_dma.c ****   {
 524:Drivers/STM32F1xx_HAL_Driver/Src/stm32f1xx_hal_dma.c ****     hdma->ErrorCode = HAL_DMA_ERROR_NOT_SUPPORTED;
 525:Drivers/STM32F1xx_HAL_Driver/Src/stm32f1xx_hal_dma.c ****     return HAL_ERROR;
 526:Drivers/STM32F1xx_HAL_Driver/Src/stm32f1xx_hal_dma.c ****   }
 527:Drivers/STM32F1xx_HAL_Driver/Src/stm32f1xx_hal_dma.c ****   
 528:Drivers/STM32F1xx_HAL_Driver/Src/stm32f1xx_hal_dma.c ****   /* Get the level transfer complete flag */
 529:Drivers/STM32F1xx_HAL_Driver/Src/stm32f1xx_hal_dma.c ****   if(CompleteLevel == HAL_DMA_FULL_TRANSFER)
 530:Drivers/STM32F1xx_HAL_Driver/Src/stm32f1xx_hal_dma.c ****   {
 531:Drivers/STM32F1xx_HAL_Driver/Src/stm32f1xx_hal_dma.c ****     /* Transfer Complete flag */
 532:Drivers/STM32F1xx_HAL_Driver/Src/stm32f1xx_hal_dma.c ****     temp = __HAL_DMA_GET_TC_FLAG_INDEX(hdma);
 533:Drivers/STM32F1xx_HAL_Driver/Src/stm32f1xx_hal_dma.c ****   }
 534:Drivers/STM32F1xx_HAL_Driver/Src/stm32f1xx_hal_dma.c ****   else
 535:Drivers/STM32F1xx_HAL_Driver/Src/stm32f1xx_hal_dma.c ****   {
 536:Drivers/STM32F1xx_HAL_Driver/Src/stm32f1xx_hal_dma.c ****     /* Half Transfer Complete flag */
 537:Drivers/STM32F1xx_HAL_Driver/Src/stm32f1xx_hal_dma.c ****     temp = __HAL_DMA_GET_HT_FLAG_INDEX(hdma);
 538:Drivers/STM32F1xx_HAL_Driver/Src/stm32f1xx_hal_dma.c ****   }
 539:Drivers/STM32F1xx_HAL_Driver/Src/stm32f1xx_hal_dma.c **** 
 540:Drivers/STM32F1xx_HAL_Driver/Src/stm32f1xx_hal_dma.c ****   /* Get tick */
 541:Drivers/STM32F1xx_HAL_Driver/Src/stm32f1xx_hal_dma.c ****   tickstart = HAL_GetTick();
 542:Drivers/STM32F1xx_HAL_Driver/Src/stm32f1xx_hal_dma.c **** 
 543:Drivers/STM32F1xx_HAL_Driver/Src/stm32f1xx_hal_dma.c ****   while(__HAL_DMA_GET_FLAG(hdma, temp) == RESET)
 544:Drivers/STM32F1xx_HAL_Driver/Src/stm32f1xx_hal_dma.c ****   {
 545:Drivers/STM32F1xx_HAL_Driver/Src/stm32f1xx_hal_dma.c ****     if((__HAL_DMA_GET_FLAG(hdma, __HAL_DMA_GET_TE_FLAG_INDEX(hdma)) != RESET))
 546:Drivers/STM32F1xx_HAL_Driver/Src/stm32f1xx_hal_dma.c ****     {
ARM GAS  /tmp/cc6lcHVI.s 			page 11


 547:Drivers/STM32F1xx_HAL_Driver/Src/stm32f1xx_hal_dma.c ****       /* When a DMA transfer error occurs */
 548:Drivers/STM32F1xx_HAL_Driver/Src/stm32f1xx_hal_dma.c ****       /* A hardware clear of its EN bits is performed */
 549:Drivers/STM32F1xx_HAL_Driver/Src/stm32f1xx_hal_dma.c ****       /* Clear all flags */
 550:Drivers/STM32F1xx_HAL_Driver/Src/stm32f1xx_hal_dma.c ****       hdma->DmaBaseAddress->IFCR = (DMA_ISR_GIF1 << hdma->ChannelIndex);
 551:Drivers/STM32F1xx_HAL_Driver/Src/stm32f1xx_hal_dma.c **** 
 552:Drivers/STM32F1xx_HAL_Driver/Src/stm32f1xx_hal_dma.c ****       /* Update error code */
 553:Drivers/STM32F1xx_HAL_Driver/Src/stm32f1xx_hal_dma.c ****       SET_BIT(hdma->ErrorCode, HAL_DMA_ERROR_TE);
 554:Drivers/STM32F1xx_HAL_Driver/Src/stm32f1xx_hal_dma.c **** 
 555:Drivers/STM32F1xx_HAL_Driver/Src/stm32f1xx_hal_dma.c ****       /* Change the DMA state */
 556:Drivers/STM32F1xx_HAL_Driver/Src/stm32f1xx_hal_dma.c ****       hdma->State= HAL_DMA_STATE_READY;
 557:Drivers/STM32F1xx_HAL_Driver/Src/stm32f1xx_hal_dma.c **** 
 558:Drivers/STM32F1xx_HAL_Driver/Src/stm32f1xx_hal_dma.c ****       /* Process Unlocked */
 559:Drivers/STM32F1xx_HAL_Driver/Src/stm32f1xx_hal_dma.c ****       __HAL_UNLOCK(hdma);
 560:Drivers/STM32F1xx_HAL_Driver/Src/stm32f1xx_hal_dma.c **** 
 561:Drivers/STM32F1xx_HAL_Driver/Src/stm32f1xx_hal_dma.c ****       return HAL_ERROR;
 562:Drivers/STM32F1xx_HAL_Driver/Src/stm32f1xx_hal_dma.c ****     }
 563:Drivers/STM32F1xx_HAL_Driver/Src/stm32f1xx_hal_dma.c ****     /* Check for the Timeout */
 564:Drivers/STM32F1xx_HAL_Driver/Src/stm32f1xx_hal_dma.c ****     if(Timeout != HAL_MAX_DELAY)
 565:Drivers/STM32F1xx_HAL_Driver/Src/stm32f1xx_hal_dma.c ****     {
 566:Drivers/STM32F1xx_HAL_Driver/Src/stm32f1xx_hal_dma.c ****       if((Timeout == 0U) || ((HAL_GetTick() - tickstart) > Timeout))
 567:Drivers/STM32F1xx_HAL_Driver/Src/stm32f1xx_hal_dma.c ****       {
 568:Drivers/STM32F1xx_HAL_Driver/Src/stm32f1xx_hal_dma.c ****         /* Update error code */
 569:Drivers/STM32F1xx_HAL_Driver/Src/stm32f1xx_hal_dma.c ****         SET_BIT(hdma->ErrorCode, HAL_DMA_ERROR_TIMEOUT);
 570:Drivers/STM32F1xx_HAL_Driver/Src/stm32f1xx_hal_dma.c **** 
 571:Drivers/STM32F1xx_HAL_Driver/Src/stm32f1xx_hal_dma.c ****         /* Change the DMA state */
 572:Drivers/STM32F1xx_HAL_Driver/Src/stm32f1xx_hal_dma.c ****         hdma->State = HAL_DMA_STATE_READY;
 573:Drivers/STM32F1xx_HAL_Driver/Src/stm32f1xx_hal_dma.c **** 
 574:Drivers/STM32F1xx_HAL_Driver/Src/stm32f1xx_hal_dma.c ****         /* Process Unlocked */
 575:Drivers/STM32F1xx_HAL_Driver/Src/stm32f1xx_hal_dma.c ****         __HAL_UNLOCK(hdma);
 576:Drivers/STM32F1xx_HAL_Driver/Src/stm32f1xx_hal_dma.c **** 
 577:Drivers/STM32F1xx_HAL_Driver/Src/stm32f1xx_hal_dma.c ****         return HAL_ERROR;
 578:Drivers/STM32F1xx_HAL_Driver/Src/stm32f1xx_hal_dma.c ****       }
 579:Drivers/STM32F1xx_HAL_Driver/Src/stm32f1xx_hal_dma.c ****     }
 580:Drivers/STM32F1xx_HAL_Driver/Src/stm32f1xx_hal_dma.c ****   }
 581:Drivers/STM32F1xx_HAL_Driver/Src/stm32f1xx_hal_dma.c **** 
 582:Drivers/STM32F1xx_HAL_Driver/Src/stm32f1xx_hal_dma.c ****   if(CompleteLevel == HAL_DMA_FULL_TRANSFER)
 583:Drivers/STM32F1xx_HAL_Driver/Src/stm32f1xx_hal_dma.c ****   {
 584:Drivers/STM32F1xx_HAL_Driver/Src/stm32f1xx_hal_dma.c ****     /* Clear the transfer complete flag */
 585:Drivers/STM32F1xx_HAL_Driver/Src/stm32f1xx_hal_dma.c ****     __HAL_DMA_CLEAR_FLAG(hdma, __HAL_DMA_GET_TC_FLAG_INDEX(hdma));
 586:Drivers/STM32F1xx_HAL_Driver/Src/stm32f1xx_hal_dma.c **** 
 587:Drivers/STM32F1xx_HAL_Driver/Src/stm32f1xx_hal_dma.c ****     /* The selected Channelx EN bit is cleared (DMA is disabled and
 588:Drivers/STM32F1xx_HAL_Driver/Src/stm32f1xx_hal_dma.c ****     all transfers are complete) */
 589:Drivers/STM32F1xx_HAL_Driver/Src/stm32f1xx_hal_dma.c ****     hdma->State = HAL_DMA_STATE_READY;
 590:Drivers/STM32F1xx_HAL_Driver/Src/stm32f1xx_hal_dma.c ****   }
 591:Drivers/STM32F1xx_HAL_Driver/Src/stm32f1xx_hal_dma.c ****   else
 592:Drivers/STM32F1xx_HAL_Driver/Src/stm32f1xx_hal_dma.c ****   {
 593:Drivers/STM32F1xx_HAL_Driver/Src/stm32f1xx_hal_dma.c ****     /* Clear the half transfer complete flag */
 594:Drivers/STM32F1xx_HAL_Driver/Src/stm32f1xx_hal_dma.c ****     __HAL_DMA_CLEAR_FLAG(hdma, __HAL_DMA_GET_HT_FLAG_INDEX(hdma));
 595:Drivers/STM32F1xx_HAL_Driver/Src/stm32f1xx_hal_dma.c ****   }
 596:Drivers/STM32F1xx_HAL_Driver/Src/stm32f1xx_hal_dma.c ****   
 597:Drivers/STM32F1xx_HAL_Driver/Src/stm32f1xx_hal_dma.c ****   /* Process unlocked */
 598:Drivers/STM32F1xx_HAL_Driver/Src/stm32f1xx_hal_dma.c ****   __HAL_UNLOCK(hdma);
 599:Drivers/STM32F1xx_HAL_Driver/Src/stm32f1xx_hal_dma.c **** 
 600:Drivers/STM32F1xx_HAL_Driver/Src/stm32f1xx_hal_dma.c ****   return HAL_OK;
 601:Drivers/STM32F1xx_HAL_Driver/Src/stm32f1xx_hal_dma.c **** }
 602:Drivers/STM32F1xx_HAL_Driver/Src/stm32f1xx_hal_dma.c **** 
 603:Drivers/STM32F1xx_HAL_Driver/Src/stm32f1xx_hal_dma.c **** /**
ARM GAS  /tmp/cc6lcHVI.s 			page 12


 604:Drivers/STM32F1xx_HAL_Driver/Src/stm32f1xx_hal_dma.c ****   * @brief  Handles DMA interrupt request.
 605:Drivers/STM32F1xx_HAL_Driver/Src/stm32f1xx_hal_dma.c ****   * @param  hdma: pointer to a DMA_HandleTypeDef structure that contains
 606:Drivers/STM32F1xx_HAL_Driver/Src/stm32f1xx_hal_dma.c ****   *               the configuration information for the specified DMA Channel.  
 607:Drivers/STM32F1xx_HAL_Driver/Src/stm32f1xx_hal_dma.c ****   * @retval None
 608:Drivers/STM32F1xx_HAL_Driver/Src/stm32f1xx_hal_dma.c ****   */
 609:Drivers/STM32F1xx_HAL_Driver/Src/stm32f1xx_hal_dma.c **** void HAL_DMA_IRQHandler(DMA_HandleTypeDef *hdma)
 610:Drivers/STM32F1xx_HAL_Driver/Src/stm32f1xx_hal_dma.c **** {
 611:Drivers/STM32F1xx_HAL_Driver/Src/stm32f1xx_hal_dma.c ****   uint32_t flag_it = hdma->DmaBaseAddress->ISR;
 612:Drivers/STM32F1xx_HAL_Driver/Src/stm32f1xx_hal_dma.c ****   uint32_t source_it = hdma->Instance->CCR;
 613:Drivers/STM32F1xx_HAL_Driver/Src/stm32f1xx_hal_dma.c ****   
 614:Drivers/STM32F1xx_HAL_Driver/Src/stm32f1xx_hal_dma.c ****   /* Half Transfer Complete Interrupt management ******************************/
 615:Drivers/STM32F1xx_HAL_Driver/Src/stm32f1xx_hal_dma.c ****   if (((flag_it & (DMA_FLAG_HT1 << hdma->ChannelIndex)) != RESET) && ((source_it & DMA_IT_HT) != RE
 616:Drivers/STM32F1xx_HAL_Driver/Src/stm32f1xx_hal_dma.c ****   {
 617:Drivers/STM32F1xx_HAL_Driver/Src/stm32f1xx_hal_dma.c ****     /* Disable the half transfer interrupt if the DMA mode is not CIRCULAR */
 618:Drivers/STM32F1xx_HAL_Driver/Src/stm32f1xx_hal_dma.c ****     if((hdma->Instance->CCR & DMA_CCR_CIRC) == 0U)
 619:Drivers/STM32F1xx_HAL_Driver/Src/stm32f1xx_hal_dma.c ****     {
 620:Drivers/STM32F1xx_HAL_Driver/Src/stm32f1xx_hal_dma.c ****       /* Disable the half transfer interrupt */
 621:Drivers/STM32F1xx_HAL_Driver/Src/stm32f1xx_hal_dma.c ****       __HAL_DMA_DISABLE_IT(hdma, DMA_IT_HT);
 622:Drivers/STM32F1xx_HAL_Driver/Src/stm32f1xx_hal_dma.c ****     }
 623:Drivers/STM32F1xx_HAL_Driver/Src/stm32f1xx_hal_dma.c ****     /* Clear the half transfer complete flag */
 624:Drivers/STM32F1xx_HAL_Driver/Src/stm32f1xx_hal_dma.c ****     __HAL_DMA_CLEAR_FLAG(hdma, __HAL_DMA_GET_HT_FLAG_INDEX(hdma));
 625:Drivers/STM32F1xx_HAL_Driver/Src/stm32f1xx_hal_dma.c **** 
 626:Drivers/STM32F1xx_HAL_Driver/Src/stm32f1xx_hal_dma.c ****     /* DMA peripheral state is not updated in Half Transfer */
 627:Drivers/STM32F1xx_HAL_Driver/Src/stm32f1xx_hal_dma.c ****     /* but in Transfer Complete case */
 628:Drivers/STM32F1xx_HAL_Driver/Src/stm32f1xx_hal_dma.c **** 
 629:Drivers/STM32F1xx_HAL_Driver/Src/stm32f1xx_hal_dma.c ****     if(hdma->XferHalfCpltCallback != NULL)
 630:Drivers/STM32F1xx_HAL_Driver/Src/stm32f1xx_hal_dma.c ****     {
 631:Drivers/STM32F1xx_HAL_Driver/Src/stm32f1xx_hal_dma.c ****       /* Half transfer callback */
 632:Drivers/STM32F1xx_HAL_Driver/Src/stm32f1xx_hal_dma.c ****       hdma->XferHalfCpltCallback(hdma);
 633:Drivers/STM32F1xx_HAL_Driver/Src/stm32f1xx_hal_dma.c ****     }
 634:Drivers/STM32F1xx_HAL_Driver/Src/stm32f1xx_hal_dma.c ****   }
 635:Drivers/STM32F1xx_HAL_Driver/Src/stm32f1xx_hal_dma.c **** 
 636:Drivers/STM32F1xx_HAL_Driver/Src/stm32f1xx_hal_dma.c ****   /* Transfer Complete Interrupt management ***********************************/
 637:Drivers/STM32F1xx_HAL_Driver/Src/stm32f1xx_hal_dma.c ****   else if (((flag_it & (DMA_FLAG_TC1 << hdma->ChannelIndex)) != RESET) && ((source_it & DMA_IT_TC) 
 638:Drivers/STM32F1xx_HAL_Driver/Src/stm32f1xx_hal_dma.c ****   {
 639:Drivers/STM32F1xx_HAL_Driver/Src/stm32f1xx_hal_dma.c ****     if((hdma->Instance->CCR & DMA_CCR_CIRC) == 0U)
 640:Drivers/STM32F1xx_HAL_Driver/Src/stm32f1xx_hal_dma.c ****     {
 641:Drivers/STM32F1xx_HAL_Driver/Src/stm32f1xx_hal_dma.c ****       /* Disable the transfer complete and error interrupt */
 642:Drivers/STM32F1xx_HAL_Driver/Src/stm32f1xx_hal_dma.c ****       __HAL_DMA_DISABLE_IT(hdma, DMA_IT_TE | DMA_IT_TC);  
 643:Drivers/STM32F1xx_HAL_Driver/Src/stm32f1xx_hal_dma.c **** 
 644:Drivers/STM32F1xx_HAL_Driver/Src/stm32f1xx_hal_dma.c ****       /* Change the DMA state */
 645:Drivers/STM32F1xx_HAL_Driver/Src/stm32f1xx_hal_dma.c ****       hdma->State = HAL_DMA_STATE_READY;
 646:Drivers/STM32F1xx_HAL_Driver/Src/stm32f1xx_hal_dma.c ****     }
 647:Drivers/STM32F1xx_HAL_Driver/Src/stm32f1xx_hal_dma.c ****     /* Clear the transfer complete flag */
 648:Drivers/STM32F1xx_HAL_Driver/Src/stm32f1xx_hal_dma.c ****       __HAL_DMA_CLEAR_FLAG(hdma, __HAL_DMA_GET_TC_FLAG_INDEX(hdma));
 649:Drivers/STM32F1xx_HAL_Driver/Src/stm32f1xx_hal_dma.c **** 
 650:Drivers/STM32F1xx_HAL_Driver/Src/stm32f1xx_hal_dma.c ****     /* Process Unlocked */
 651:Drivers/STM32F1xx_HAL_Driver/Src/stm32f1xx_hal_dma.c ****     __HAL_UNLOCK(hdma);
 652:Drivers/STM32F1xx_HAL_Driver/Src/stm32f1xx_hal_dma.c **** 
 653:Drivers/STM32F1xx_HAL_Driver/Src/stm32f1xx_hal_dma.c ****     if(hdma->XferCpltCallback != NULL)
 654:Drivers/STM32F1xx_HAL_Driver/Src/stm32f1xx_hal_dma.c ****     {
 655:Drivers/STM32F1xx_HAL_Driver/Src/stm32f1xx_hal_dma.c ****       /* Transfer complete callback */
 656:Drivers/STM32F1xx_HAL_Driver/Src/stm32f1xx_hal_dma.c ****       hdma->XferCpltCallback(hdma);
 657:Drivers/STM32F1xx_HAL_Driver/Src/stm32f1xx_hal_dma.c ****     }
 658:Drivers/STM32F1xx_HAL_Driver/Src/stm32f1xx_hal_dma.c ****   }
 659:Drivers/STM32F1xx_HAL_Driver/Src/stm32f1xx_hal_dma.c **** 
 660:Drivers/STM32F1xx_HAL_Driver/Src/stm32f1xx_hal_dma.c ****   /* Transfer Error Interrupt management **************************************/
ARM GAS  /tmp/cc6lcHVI.s 			page 13


 661:Drivers/STM32F1xx_HAL_Driver/Src/stm32f1xx_hal_dma.c ****   else if (( RESET != (flag_it & (DMA_FLAG_TE1 << hdma->ChannelIndex))) && (RESET != (source_it & D
 662:Drivers/STM32F1xx_HAL_Driver/Src/stm32f1xx_hal_dma.c ****   {
 663:Drivers/STM32F1xx_HAL_Driver/Src/stm32f1xx_hal_dma.c ****     /* When a DMA transfer error occurs */
 664:Drivers/STM32F1xx_HAL_Driver/Src/stm32f1xx_hal_dma.c ****     /* A hardware clear of its EN bits is performed */
 665:Drivers/STM32F1xx_HAL_Driver/Src/stm32f1xx_hal_dma.c ****     /* Disable ALL DMA IT */
 666:Drivers/STM32F1xx_HAL_Driver/Src/stm32f1xx_hal_dma.c ****     __HAL_DMA_DISABLE_IT(hdma, (DMA_IT_TC | DMA_IT_HT | DMA_IT_TE));
 667:Drivers/STM32F1xx_HAL_Driver/Src/stm32f1xx_hal_dma.c **** 
 668:Drivers/STM32F1xx_HAL_Driver/Src/stm32f1xx_hal_dma.c ****     /* Clear all flags */
 669:Drivers/STM32F1xx_HAL_Driver/Src/stm32f1xx_hal_dma.c ****     hdma->DmaBaseAddress->IFCR = (DMA_ISR_GIF1 << hdma->ChannelIndex);
 670:Drivers/STM32F1xx_HAL_Driver/Src/stm32f1xx_hal_dma.c **** 
 671:Drivers/STM32F1xx_HAL_Driver/Src/stm32f1xx_hal_dma.c ****     /* Update error code */
 672:Drivers/STM32F1xx_HAL_Driver/Src/stm32f1xx_hal_dma.c ****     hdma->ErrorCode = HAL_DMA_ERROR_TE;
 673:Drivers/STM32F1xx_HAL_Driver/Src/stm32f1xx_hal_dma.c **** 
 674:Drivers/STM32F1xx_HAL_Driver/Src/stm32f1xx_hal_dma.c ****     /* Change the DMA state */
 675:Drivers/STM32F1xx_HAL_Driver/Src/stm32f1xx_hal_dma.c ****     hdma->State = HAL_DMA_STATE_READY;
 676:Drivers/STM32F1xx_HAL_Driver/Src/stm32f1xx_hal_dma.c **** 
 677:Drivers/STM32F1xx_HAL_Driver/Src/stm32f1xx_hal_dma.c ****     /* Process Unlocked */
 678:Drivers/STM32F1xx_HAL_Driver/Src/stm32f1xx_hal_dma.c ****     __HAL_UNLOCK(hdma);
 679:Drivers/STM32F1xx_HAL_Driver/Src/stm32f1xx_hal_dma.c **** 
 680:Drivers/STM32F1xx_HAL_Driver/Src/stm32f1xx_hal_dma.c ****     if (hdma->XferErrorCallback != NULL)
 681:Drivers/STM32F1xx_HAL_Driver/Src/stm32f1xx_hal_dma.c ****     {
 682:Drivers/STM32F1xx_HAL_Driver/Src/stm32f1xx_hal_dma.c ****       /* Transfer error callback */
 683:Drivers/STM32F1xx_HAL_Driver/Src/stm32f1xx_hal_dma.c ****       hdma->XferErrorCallback(hdma);
 684:Drivers/STM32F1xx_HAL_Driver/Src/stm32f1xx_hal_dma.c ****     }
 685:Drivers/STM32F1xx_HAL_Driver/Src/stm32f1xx_hal_dma.c ****   }
 686:Drivers/STM32F1xx_HAL_Driver/Src/stm32f1xx_hal_dma.c ****   return;
 687:Drivers/STM32F1xx_HAL_Driver/Src/stm32f1xx_hal_dma.c **** }
 688:Drivers/STM32F1xx_HAL_Driver/Src/stm32f1xx_hal_dma.c **** 
 689:Drivers/STM32F1xx_HAL_Driver/Src/stm32f1xx_hal_dma.c **** /**
 690:Drivers/STM32F1xx_HAL_Driver/Src/stm32f1xx_hal_dma.c ****   * @brief Register callbacks
 691:Drivers/STM32F1xx_HAL_Driver/Src/stm32f1xx_hal_dma.c ****   * @param hdma: pointer to a DMA_HandleTypeDef structure that contains
 692:Drivers/STM32F1xx_HAL_Driver/Src/stm32f1xx_hal_dma.c ****   *              the configuration information for the specified DMA Channel.
 693:Drivers/STM32F1xx_HAL_Driver/Src/stm32f1xx_hal_dma.c ****   * @param CallbackID: User Callback identifer
 694:Drivers/STM32F1xx_HAL_Driver/Src/stm32f1xx_hal_dma.c ****   *                    a HAL_DMA_CallbackIDTypeDef ENUM as parameter.
 695:Drivers/STM32F1xx_HAL_Driver/Src/stm32f1xx_hal_dma.c ****   * @param pCallback: pointer to private callbacsk function which has pointer to 
 696:Drivers/STM32F1xx_HAL_Driver/Src/stm32f1xx_hal_dma.c ****   *                   a DMA_HandleTypeDef structure as parameter.
 697:Drivers/STM32F1xx_HAL_Driver/Src/stm32f1xx_hal_dma.c ****   * @retval HAL status
 698:Drivers/STM32F1xx_HAL_Driver/Src/stm32f1xx_hal_dma.c ****   */                          
 699:Drivers/STM32F1xx_HAL_Driver/Src/stm32f1xx_hal_dma.c **** HAL_StatusTypeDef HAL_DMA_RegisterCallback(DMA_HandleTypeDef *hdma, HAL_DMA_CallbackIDTypeDef Callb
 700:Drivers/STM32F1xx_HAL_Driver/Src/stm32f1xx_hal_dma.c **** {
 701:Drivers/STM32F1xx_HAL_Driver/Src/stm32f1xx_hal_dma.c ****   HAL_StatusTypeDef status = HAL_OK;
 702:Drivers/STM32F1xx_HAL_Driver/Src/stm32f1xx_hal_dma.c ****   
 703:Drivers/STM32F1xx_HAL_Driver/Src/stm32f1xx_hal_dma.c ****   /* Process locked */
 704:Drivers/STM32F1xx_HAL_Driver/Src/stm32f1xx_hal_dma.c ****   __HAL_LOCK(hdma);
 705:Drivers/STM32F1xx_HAL_Driver/Src/stm32f1xx_hal_dma.c ****   
 706:Drivers/STM32F1xx_HAL_Driver/Src/stm32f1xx_hal_dma.c ****   if(HAL_DMA_STATE_READY == hdma->State)
 707:Drivers/STM32F1xx_HAL_Driver/Src/stm32f1xx_hal_dma.c ****   {
 708:Drivers/STM32F1xx_HAL_Driver/Src/stm32f1xx_hal_dma.c ****     switch (CallbackID)
 709:Drivers/STM32F1xx_HAL_Driver/Src/stm32f1xx_hal_dma.c ****     {
 710:Drivers/STM32F1xx_HAL_Driver/Src/stm32f1xx_hal_dma.c ****     case  HAL_DMA_XFER_CPLT_CB_ID:
 711:Drivers/STM32F1xx_HAL_Driver/Src/stm32f1xx_hal_dma.c ****       hdma->XferCpltCallback = pCallback;
 712:Drivers/STM32F1xx_HAL_Driver/Src/stm32f1xx_hal_dma.c ****       break;
 713:Drivers/STM32F1xx_HAL_Driver/Src/stm32f1xx_hal_dma.c ****       
 714:Drivers/STM32F1xx_HAL_Driver/Src/stm32f1xx_hal_dma.c ****     case  HAL_DMA_XFER_HALFCPLT_CB_ID:
 715:Drivers/STM32F1xx_HAL_Driver/Src/stm32f1xx_hal_dma.c ****       hdma->XferHalfCpltCallback = pCallback;
 716:Drivers/STM32F1xx_HAL_Driver/Src/stm32f1xx_hal_dma.c ****       break;         
 717:Drivers/STM32F1xx_HAL_Driver/Src/stm32f1xx_hal_dma.c **** 
ARM GAS  /tmp/cc6lcHVI.s 			page 14


 718:Drivers/STM32F1xx_HAL_Driver/Src/stm32f1xx_hal_dma.c ****     case  HAL_DMA_XFER_ERROR_CB_ID:
 719:Drivers/STM32F1xx_HAL_Driver/Src/stm32f1xx_hal_dma.c ****       hdma->XferErrorCallback = pCallback;
 720:Drivers/STM32F1xx_HAL_Driver/Src/stm32f1xx_hal_dma.c ****       break;         
 721:Drivers/STM32F1xx_HAL_Driver/Src/stm32f1xx_hal_dma.c ****       
 722:Drivers/STM32F1xx_HAL_Driver/Src/stm32f1xx_hal_dma.c ****     case  HAL_DMA_XFER_ABORT_CB_ID:
 723:Drivers/STM32F1xx_HAL_Driver/Src/stm32f1xx_hal_dma.c ****       hdma->XferAbortCallback = pCallback;
 724:Drivers/STM32F1xx_HAL_Driver/Src/stm32f1xx_hal_dma.c ****       break; 
 725:Drivers/STM32F1xx_HAL_Driver/Src/stm32f1xx_hal_dma.c ****       
 726:Drivers/STM32F1xx_HAL_Driver/Src/stm32f1xx_hal_dma.c ****     default:
 727:Drivers/STM32F1xx_HAL_Driver/Src/stm32f1xx_hal_dma.c ****       status = HAL_ERROR;
 728:Drivers/STM32F1xx_HAL_Driver/Src/stm32f1xx_hal_dma.c ****       break;                                                            
 729:Drivers/STM32F1xx_HAL_Driver/Src/stm32f1xx_hal_dma.c ****     }
 730:Drivers/STM32F1xx_HAL_Driver/Src/stm32f1xx_hal_dma.c ****   }
 731:Drivers/STM32F1xx_HAL_Driver/Src/stm32f1xx_hal_dma.c ****   else
 732:Drivers/STM32F1xx_HAL_Driver/Src/stm32f1xx_hal_dma.c ****   {
 733:Drivers/STM32F1xx_HAL_Driver/Src/stm32f1xx_hal_dma.c ****     status = HAL_ERROR;
 734:Drivers/STM32F1xx_HAL_Driver/Src/stm32f1xx_hal_dma.c ****   } 
 735:Drivers/STM32F1xx_HAL_Driver/Src/stm32f1xx_hal_dma.c ****   
 736:Drivers/STM32F1xx_HAL_Driver/Src/stm32f1xx_hal_dma.c ****   /* Release Lock */
 737:Drivers/STM32F1xx_HAL_Driver/Src/stm32f1xx_hal_dma.c ****   __HAL_UNLOCK(hdma);
 738:Drivers/STM32F1xx_HAL_Driver/Src/stm32f1xx_hal_dma.c ****   
 739:Drivers/STM32F1xx_HAL_Driver/Src/stm32f1xx_hal_dma.c ****   return status;
 740:Drivers/STM32F1xx_HAL_Driver/Src/stm32f1xx_hal_dma.c **** }
 741:Drivers/STM32F1xx_HAL_Driver/Src/stm32f1xx_hal_dma.c **** 
 742:Drivers/STM32F1xx_HAL_Driver/Src/stm32f1xx_hal_dma.c **** /**
 743:Drivers/STM32F1xx_HAL_Driver/Src/stm32f1xx_hal_dma.c ****   * @brief UnRegister callbacks
 744:Drivers/STM32F1xx_HAL_Driver/Src/stm32f1xx_hal_dma.c ****   * @param hdma: pointer to a DMA_HandleTypeDef structure that contains
 745:Drivers/STM32F1xx_HAL_Driver/Src/stm32f1xx_hal_dma.c ****   *              the configuration information for the specified DMA Channel.
 746:Drivers/STM32F1xx_HAL_Driver/Src/stm32f1xx_hal_dma.c ****   * @param CallbackID: User Callback identifer
 747:Drivers/STM32F1xx_HAL_Driver/Src/stm32f1xx_hal_dma.c ****   *                    a HAL_DMA_CallbackIDTypeDef ENUM as parameter.
 748:Drivers/STM32F1xx_HAL_Driver/Src/stm32f1xx_hal_dma.c ****   * @retval HAL status
 749:Drivers/STM32F1xx_HAL_Driver/Src/stm32f1xx_hal_dma.c ****   */              
 750:Drivers/STM32F1xx_HAL_Driver/Src/stm32f1xx_hal_dma.c **** HAL_StatusTypeDef HAL_DMA_UnRegisterCallback(DMA_HandleTypeDef *hdma, HAL_DMA_CallbackIDTypeDef Cal
 751:Drivers/STM32F1xx_HAL_Driver/Src/stm32f1xx_hal_dma.c **** {
 752:Drivers/STM32F1xx_HAL_Driver/Src/stm32f1xx_hal_dma.c ****   HAL_StatusTypeDef status = HAL_OK;
 753:Drivers/STM32F1xx_HAL_Driver/Src/stm32f1xx_hal_dma.c **** 
 754:Drivers/STM32F1xx_HAL_Driver/Src/stm32f1xx_hal_dma.c ****   /* Process locked */
 755:Drivers/STM32F1xx_HAL_Driver/Src/stm32f1xx_hal_dma.c ****   __HAL_LOCK(hdma);
 756:Drivers/STM32F1xx_HAL_Driver/Src/stm32f1xx_hal_dma.c ****   
 757:Drivers/STM32F1xx_HAL_Driver/Src/stm32f1xx_hal_dma.c ****   if(HAL_DMA_STATE_READY == hdma->State)
 758:Drivers/STM32F1xx_HAL_Driver/Src/stm32f1xx_hal_dma.c ****   {
 759:Drivers/STM32F1xx_HAL_Driver/Src/stm32f1xx_hal_dma.c ****     switch (CallbackID)
 760:Drivers/STM32F1xx_HAL_Driver/Src/stm32f1xx_hal_dma.c ****     {
 761:Drivers/STM32F1xx_HAL_Driver/Src/stm32f1xx_hal_dma.c ****     case  HAL_DMA_XFER_CPLT_CB_ID:
 762:Drivers/STM32F1xx_HAL_Driver/Src/stm32f1xx_hal_dma.c ****       hdma->XferCpltCallback = NULL;
 763:Drivers/STM32F1xx_HAL_Driver/Src/stm32f1xx_hal_dma.c ****       break;
 764:Drivers/STM32F1xx_HAL_Driver/Src/stm32f1xx_hal_dma.c **** 
 765:Drivers/STM32F1xx_HAL_Driver/Src/stm32f1xx_hal_dma.c ****     case  HAL_DMA_XFER_HALFCPLT_CB_ID:
 766:Drivers/STM32F1xx_HAL_Driver/Src/stm32f1xx_hal_dma.c ****       hdma->XferHalfCpltCallback = NULL;
 767:Drivers/STM32F1xx_HAL_Driver/Src/stm32f1xx_hal_dma.c ****       break;         
 768:Drivers/STM32F1xx_HAL_Driver/Src/stm32f1xx_hal_dma.c **** 
 769:Drivers/STM32F1xx_HAL_Driver/Src/stm32f1xx_hal_dma.c ****     case  HAL_DMA_XFER_ERROR_CB_ID:
 770:Drivers/STM32F1xx_HAL_Driver/Src/stm32f1xx_hal_dma.c ****       hdma->XferErrorCallback = NULL;
 771:Drivers/STM32F1xx_HAL_Driver/Src/stm32f1xx_hal_dma.c ****       break;         
 772:Drivers/STM32F1xx_HAL_Driver/Src/stm32f1xx_hal_dma.c **** 
 773:Drivers/STM32F1xx_HAL_Driver/Src/stm32f1xx_hal_dma.c ****     case  HAL_DMA_XFER_ABORT_CB_ID:
 774:Drivers/STM32F1xx_HAL_Driver/Src/stm32f1xx_hal_dma.c ****       hdma->XferAbortCallback = NULL;
ARM GAS  /tmp/cc6lcHVI.s 			page 15


 775:Drivers/STM32F1xx_HAL_Driver/Src/stm32f1xx_hal_dma.c ****       break; 
 776:Drivers/STM32F1xx_HAL_Driver/Src/stm32f1xx_hal_dma.c **** 
 777:Drivers/STM32F1xx_HAL_Driver/Src/stm32f1xx_hal_dma.c ****     case   HAL_DMA_XFER_ALL_CB_ID:
 778:Drivers/STM32F1xx_HAL_Driver/Src/stm32f1xx_hal_dma.c ****       hdma->XferCpltCallback = NULL;
 779:Drivers/STM32F1xx_HAL_Driver/Src/stm32f1xx_hal_dma.c ****       hdma->XferHalfCpltCallback = NULL;
 780:Drivers/STM32F1xx_HAL_Driver/Src/stm32f1xx_hal_dma.c ****       hdma->XferErrorCallback = NULL;
 781:Drivers/STM32F1xx_HAL_Driver/Src/stm32f1xx_hal_dma.c ****       hdma->XferAbortCallback = NULL;
 782:Drivers/STM32F1xx_HAL_Driver/Src/stm32f1xx_hal_dma.c ****       break; 
 783:Drivers/STM32F1xx_HAL_Driver/Src/stm32f1xx_hal_dma.c **** 
 784:Drivers/STM32F1xx_HAL_Driver/Src/stm32f1xx_hal_dma.c ****     default:
 785:Drivers/STM32F1xx_HAL_Driver/Src/stm32f1xx_hal_dma.c ****       status = HAL_ERROR;
 786:Drivers/STM32F1xx_HAL_Driver/Src/stm32f1xx_hal_dma.c ****       break;
 787:Drivers/STM32F1xx_HAL_Driver/Src/stm32f1xx_hal_dma.c ****     }
 788:Drivers/STM32F1xx_HAL_Driver/Src/stm32f1xx_hal_dma.c ****   }
 789:Drivers/STM32F1xx_HAL_Driver/Src/stm32f1xx_hal_dma.c ****   else
 790:Drivers/STM32F1xx_HAL_Driver/Src/stm32f1xx_hal_dma.c ****   {
 791:Drivers/STM32F1xx_HAL_Driver/Src/stm32f1xx_hal_dma.c ****     status = HAL_ERROR;
 792:Drivers/STM32F1xx_HAL_Driver/Src/stm32f1xx_hal_dma.c ****   } 
 793:Drivers/STM32F1xx_HAL_Driver/Src/stm32f1xx_hal_dma.c ****   
 794:Drivers/STM32F1xx_HAL_Driver/Src/stm32f1xx_hal_dma.c ****   /* Release Lock */
 795:Drivers/STM32F1xx_HAL_Driver/Src/stm32f1xx_hal_dma.c ****   __HAL_UNLOCK(hdma);
 796:Drivers/STM32F1xx_HAL_Driver/Src/stm32f1xx_hal_dma.c ****   
 797:Drivers/STM32F1xx_HAL_Driver/Src/stm32f1xx_hal_dma.c ****   return status;
 798:Drivers/STM32F1xx_HAL_Driver/Src/stm32f1xx_hal_dma.c **** }
 799:Drivers/STM32F1xx_HAL_Driver/Src/stm32f1xx_hal_dma.c ****   
 800:Drivers/STM32F1xx_HAL_Driver/Src/stm32f1xx_hal_dma.c **** /**
 801:Drivers/STM32F1xx_HAL_Driver/Src/stm32f1xx_hal_dma.c ****   * @}
 802:Drivers/STM32F1xx_HAL_Driver/Src/stm32f1xx_hal_dma.c ****   */
 803:Drivers/STM32F1xx_HAL_Driver/Src/stm32f1xx_hal_dma.c **** 
 804:Drivers/STM32F1xx_HAL_Driver/Src/stm32f1xx_hal_dma.c **** /** @defgroup DMA_Exported_Functions_Group3 Peripheral State and Errors functions
 805:Drivers/STM32F1xx_HAL_Driver/Src/stm32f1xx_hal_dma.c ****   *  @brief    Peripheral State and Errors functions
 806:Drivers/STM32F1xx_HAL_Driver/Src/stm32f1xx_hal_dma.c ****   *
 807:Drivers/STM32F1xx_HAL_Driver/Src/stm32f1xx_hal_dma.c **** @verbatim
 808:Drivers/STM32F1xx_HAL_Driver/Src/stm32f1xx_hal_dma.c ****  ===============================================================================
 809:Drivers/STM32F1xx_HAL_Driver/Src/stm32f1xx_hal_dma.c ****             ##### Peripheral State and Errors functions #####
 810:Drivers/STM32F1xx_HAL_Driver/Src/stm32f1xx_hal_dma.c ****  ===============================================================================  
 811:Drivers/STM32F1xx_HAL_Driver/Src/stm32f1xx_hal_dma.c ****     [..]
 812:Drivers/STM32F1xx_HAL_Driver/Src/stm32f1xx_hal_dma.c ****     This subsection provides functions allowing to
 813:Drivers/STM32F1xx_HAL_Driver/Src/stm32f1xx_hal_dma.c ****       (+) Check the DMA state
 814:Drivers/STM32F1xx_HAL_Driver/Src/stm32f1xx_hal_dma.c ****       (+) Get error code
 815:Drivers/STM32F1xx_HAL_Driver/Src/stm32f1xx_hal_dma.c **** 
 816:Drivers/STM32F1xx_HAL_Driver/Src/stm32f1xx_hal_dma.c **** @endverbatim
 817:Drivers/STM32F1xx_HAL_Driver/Src/stm32f1xx_hal_dma.c ****   * @{
 818:Drivers/STM32F1xx_HAL_Driver/Src/stm32f1xx_hal_dma.c ****   */
 819:Drivers/STM32F1xx_HAL_Driver/Src/stm32f1xx_hal_dma.c **** 
 820:Drivers/STM32F1xx_HAL_Driver/Src/stm32f1xx_hal_dma.c **** /**
 821:Drivers/STM32F1xx_HAL_Driver/Src/stm32f1xx_hal_dma.c ****   * @brief  Return the DMA hande state.
 822:Drivers/STM32F1xx_HAL_Driver/Src/stm32f1xx_hal_dma.c ****   * @param  hdma: pointer to a DMA_HandleTypeDef structure that contains
 823:Drivers/STM32F1xx_HAL_Driver/Src/stm32f1xx_hal_dma.c ****   *               the configuration information for the specified DMA Channel.
 824:Drivers/STM32F1xx_HAL_Driver/Src/stm32f1xx_hal_dma.c ****   * @retval HAL state
 825:Drivers/STM32F1xx_HAL_Driver/Src/stm32f1xx_hal_dma.c ****   */
 826:Drivers/STM32F1xx_HAL_Driver/Src/stm32f1xx_hal_dma.c **** HAL_DMA_StateTypeDef HAL_DMA_GetState(DMA_HandleTypeDef *hdma)
 827:Drivers/STM32F1xx_HAL_Driver/Src/stm32f1xx_hal_dma.c **** {
 828:Drivers/STM32F1xx_HAL_Driver/Src/stm32f1xx_hal_dma.c ****   /* Return DMA handle state */
 829:Drivers/STM32F1xx_HAL_Driver/Src/stm32f1xx_hal_dma.c ****   return hdma->State;
 830:Drivers/STM32F1xx_HAL_Driver/Src/stm32f1xx_hal_dma.c **** }
 831:Drivers/STM32F1xx_HAL_Driver/Src/stm32f1xx_hal_dma.c **** 
ARM GAS  /tmp/cc6lcHVI.s 			page 16


 832:Drivers/STM32F1xx_HAL_Driver/Src/stm32f1xx_hal_dma.c **** /**
 833:Drivers/STM32F1xx_HAL_Driver/Src/stm32f1xx_hal_dma.c ****   * @brief  Return the DMA error code.
 834:Drivers/STM32F1xx_HAL_Driver/Src/stm32f1xx_hal_dma.c ****   * @param  hdma : pointer to a DMA_HandleTypeDef structure that contains
 835:Drivers/STM32F1xx_HAL_Driver/Src/stm32f1xx_hal_dma.c ****   *              the configuration information for the specified DMA Channel.
 836:Drivers/STM32F1xx_HAL_Driver/Src/stm32f1xx_hal_dma.c ****   * @retval DMA Error Code
 837:Drivers/STM32F1xx_HAL_Driver/Src/stm32f1xx_hal_dma.c ****   */
 838:Drivers/STM32F1xx_HAL_Driver/Src/stm32f1xx_hal_dma.c **** uint32_t HAL_DMA_GetError(DMA_HandleTypeDef *hdma)
 839:Drivers/STM32F1xx_HAL_Driver/Src/stm32f1xx_hal_dma.c **** {
 840:Drivers/STM32F1xx_HAL_Driver/Src/stm32f1xx_hal_dma.c ****   return hdma->ErrorCode;
 841:Drivers/STM32F1xx_HAL_Driver/Src/stm32f1xx_hal_dma.c **** }
 842:Drivers/STM32F1xx_HAL_Driver/Src/stm32f1xx_hal_dma.c **** 
 843:Drivers/STM32F1xx_HAL_Driver/Src/stm32f1xx_hal_dma.c **** /**
 844:Drivers/STM32F1xx_HAL_Driver/Src/stm32f1xx_hal_dma.c ****   * @}
 845:Drivers/STM32F1xx_HAL_Driver/Src/stm32f1xx_hal_dma.c ****   */
 846:Drivers/STM32F1xx_HAL_Driver/Src/stm32f1xx_hal_dma.c **** 
 847:Drivers/STM32F1xx_HAL_Driver/Src/stm32f1xx_hal_dma.c **** /**
 848:Drivers/STM32F1xx_HAL_Driver/Src/stm32f1xx_hal_dma.c ****   * @}
 849:Drivers/STM32F1xx_HAL_Driver/Src/stm32f1xx_hal_dma.c ****   */
 850:Drivers/STM32F1xx_HAL_Driver/Src/stm32f1xx_hal_dma.c **** 
 851:Drivers/STM32F1xx_HAL_Driver/Src/stm32f1xx_hal_dma.c **** /** @addtogroup DMA_Private_Functions
 852:Drivers/STM32F1xx_HAL_Driver/Src/stm32f1xx_hal_dma.c ****   * @{
 853:Drivers/STM32F1xx_HAL_Driver/Src/stm32f1xx_hal_dma.c ****   */
 854:Drivers/STM32F1xx_HAL_Driver/Src/stm32f1xx_hal_dma.c **** 
 855:Drivers/STM32F1xx_HAL_Driver/Src/stm32f1xx_hal_dma.c **** /**
 856:Drivers/STM32F1xx_HAL_Driver/Src/stm32f1xx_hal_dma.c ****   * @brief  Sets the DMA Transfer parameter.
 857:Drivers/STM32F1xx_HAL_Driver/Src/stm32f1xx_hal_dma.c ****   * @param  hdma:       pointer to a DMA_HandleTypeDef structure that contains
 858:Drivers/STM32F1xx_HAL_Driver/Src/stm32f1xx_hal_dma.c ****   *                     the configuration information for the specified DMA Channel.
 859:Drivers/STM32F1xx_HAL_Driver/Src/stm32f1xx_hal_dma.c ****   * @param  SrcAddress: The source memory Buffer address
 860:Drivers/STM32F1xx_HAL_Driver/Src/stm32f1xx_hal_dma.c ****   * @param  DstAddress: The destination memory Buffer address
 861:Drivers/STM32F1xx_HAL_Driver/Src/stm32f1xx_hal_dma.c ****   * @param  DataLength: The length of data to be transferred from source to destination
 862:Drivers/STM32F1xx_HAL_Driver/Src/stm32f1xx_hal_dma.c ****   * @retval HAL status
 863:Drivers/STM32F1xx_HAL_Driver/Src/stm32f1xx_hal_dma.c ****   */
 864:Drivers/STM32F1xx_HAL_Driver/Src/stm32f1xx_hal_dma.c **** static void DMA_SetConfig(DMA_HandleTypeDef *hdma, uint32_t SrcAddress, uint32_t DstAddress, uint32
 865:Drivers/STM32F1xx_HAL_Driver/Src/stm32f1xx_hal_dma.c **** {
  26              		.loc 1 865 0
  27              		.cfi_startproc
  28              		@ args = 0, pretend = 0, frame = 0
  29              		@ frame_needed = 0, uses_anonymous_args = 0
  30              		@ link register save eliminated.
  31              	.LVL0:
  32 0000 70B4     		push	{r4, r5, r6}
  33              	.LCFI0:
  34              		.cfi_def_cfa_offset 12
  35              		.cfi_offset 4, -12
  36              		.cfi_offset 5, -8
  37              		.cfi_offset 6, -4
 866:Drivers/STM32F1xx_HAL_Driver/Src/stm32f1xx_hal_dma.c ****   /* Clear all flags */
 867:Drivers/STM32F1xx_HAL_Driver/Src/stm32f1xx_hal_dma.c ****   hdma->DmaBaseAddress->IFCR = (DMA_ISR_GIF1 << hdma->ChannelIndex);
  38              		.loc 1 867 0
  39 0002 C56B     		ldr	r5, [r0, #60]
  40 0004 066C     		ldr	r6, [r0, #64]
  41 0006 0124     		movs	r4, #1
  42 0008 B440     		lsls	r4, r4, r6
  43 000a 6C60     		str	r4, [r5, #4]
 868:Drivers/STM32F1xx_HAL_Driver/Src/stm32f1xx_hal_dma.c **** 
 869:Drivers/STM32F1xx_HAL_Driver/Src/stm32f1xx_hal_dma.c ****   /* Configure DMA Channel data length */
 870:Drivers/STM32F1xx_HAL_Driver/Src/stm32f1xx_hal_dma.c ****   hdma->Instance->CNDTR = DataLength;
ARM GAS  /tmp/cc6lcHVI.s 			page 17


  44              		.loc 1 870 0
  45 000c 0468     		ldr	r4, [r0]
  46 000e 6360     		str	r3, [r4, #4]
 871:Drivers/STM32F1xx_HAL_Driver/Src/stm32f1xx_hal_dma.c **** 
 872:Drivers/STM32F1xx_HAL_Driver/Src/stm32f1xx_hal_dma.c ****   /* Memory to Peripheral */
 873:Drivers/STM32F1xx_HAL_Driver/Src/stm32f1xx_hal_dma.c ****   if((hdma->Init.Direction) == DMA_MEMORY_TO_PERIPH)
  47              		.loc 1 873 0
  48 0010 4368     		ldr	r3, [r0, #4]
  49              	.LVL1:
  50 0012 102B     		cmp	r3, #16
  51 0014 04D1     		bne	.L2
 874:Drivers/STM32F1xx_HAL_Driver/Src/stm32f1xx_hal_dma.c ****   {
 875:Drivers/STM32F1xx_HAL_Driver/Src/stm32f1xx_hal_dma.c ****     /* Configure DMA Channel destination address */
 876:Drivers/STM32F1xx_HAL_Driver/Src/stm32f1xx_hal_dma.c ****     hdma->Instance->CPAR = DstAddress;
  52              		.loc 1 876 0
  53 0016 0368     		ldr	r3, [r0]
  54 0018 9A60     		str	r2, [r3, #8]
  55              	.LVL2:
 877:Drivers/STM32F1xx_HAL_Driver/Src/stm32f1xx_hal_dma.c **** 
 878:Drivers/STM32F1xx_HAL_Driver/Src/stm32f1xx_hal_dma.c ****     /* Configure DMA Channel source address */
 879:Drivers/STM32F1xx_HAL_Driver/Src/stm32f1xx_hal_dma.c ****     hdma->Instance->CMAR = SrcAddress;
  56              		.loc 1 879 0
  57 001a 0368     		ldr	r3, [r0]
  58 001c D960     		str	r1, [r3, #12]
  59 001e 03E0     		b	.L1
  60              	.LVL3:
  61              	.L2:
 880:Drivers/STM32F1xx_HAL_Driver/Src/stm32f1xx_hal_dma.c ****   }
 881:Drivers/STM32F1xx_HAL_Driver/Src/stm32f1xx_hal_dma.c ****   /* Peripheral to Memory */
 882:Drivers/STM32F1xx_HAL_Driver/Src/stm32f1xx_hal_dma.c ****   else
 883:Drivers/STM32F1xx_HAL_Driver/Src/stm32f1xx_hal_dma.c ****   {
 884:Drivers/STM32F1xx_HAL_Driver/Src/stm32f1xx_hal_dma.c ****     /* Configure DMA Channel source address */
 885:Drivers/STM32F1xx_HAL_Driver/Src/stm32f1xx_hal_dma.c ****     hdma->Instance->CPAR = SrcAddress;
  62              		.loc 1 885 0
  63 0020 0368     		ldr	r3, [r0]
  64 0022 9960     		str	r1, [r3, #8]
  65              	.LVL4:
 886:Drivers/STM32F1xx_HAL_Driver/Src/stm32f1xx_hal_dma.c **** 
 887:Drivers/STM32F1xx_HAL_Driver/Src/stm32f1xx_hal_dma.c ****     /* Configure DMA Channel destination address */
 888:Drivers/STM32F1xx_HAL_Driver/Src/stm32f1xx_hal_dma.c ****     hdma->Instance->CMAR = DstAddress;
  66              		.loc 1 888 0
  67 0024 0368     		ldr	r3, [r0]
  68 0026 DA60     		str	r2, [r3, #12]
  69              	.L1:
 889:Drivers/STM32F1xx_HAL_Driver/Src/stm32f1xx_hal_dma.c ****   }
 890:Drivers/STM32F1xx_HAL_Driver/Src/stm32f1xx_hal_dma.c **** }
  70              		.loc 1 890 0
  71 0028 70BC     		pop	{r4, r5, r6}
  72              	.LCFI1:
  73              		.cfi_restore 6
  74              		.cfi_restore 5
  75              		.cfi_restore 4
  76              		.cfi_def_cfa_offset 0
  77 002a 7047     		bx	lr
  78              		.cfi_endproc
  79              	.LFE75:
  81              		.section	.text.HAL_DMA_Init,"ax",%progbits
ARM GAS  /tmp/cc6lcHVI.s 			page 18


  82              		.align	2
  83              		.global	HAL_DMA_Init
  84              		.thumb
  85              		.thumb_func
  87              	HAL_DMA_Init:
  88              	.LFB63:
 162:Drivers/STM32F1xx_HAL_Driver/Src/stm32f1xx_hal_dma.c ****   uint32_t tmp = 0U;
  89              		.loc 1 162 0
  90              		.cfi_startproc
  91              		@ args = 0, pretend = 0, frame = 0
  92              		@ frame_needed = 0, uses_anonymous_args = 0
  93              		@ link register save eliminated.
  94              	.LVL5:
 166:Drivers/STM32F1xx_HAL_Driver/Src/stm32f1xx_hal_dma.c ****   {
  95              		.loc 1 166 0
  96 0000 0028     		cmp	r0, #0
  97 0002 3ED0     		beq	.L9
 162:Drivers/STM32F1xx_HAL_Driver/Src/stm32f1xx_hal_dma.c ****   uint32_t tmp = 0U;
  98              		.loc 1 162 0
  99 0004 10B4     		push	{r4}
 100              	.LCFI2:
 101              		.cfi_def_cfa_offset 4
 102              		.cfi_offset 4, -4
 103 0006 0346     		mov	r3, r0
 183:Drivers/STM32F1xx_HAL_Driver/Src/stm32f1xx_hal_dma.c ****   {
 104              		.loc 1 183 0
 105 0008 0168     		ldr	r1, [r0]
 106 000a 204A     		ldr	r2, .L12
 107 000c 9142     		cmp	r1, r2
 108 000e 0AD8     		bhi	.L7
 186:Drivers/STM32F1xx_HAL_Driver/Src/stm32f1xx_hal_dma.c ****     hdma->DmaBaseAddress = DMA1;
 109              		.loc 1 186 0
 110 0010 1F4A     		ldr	r2, .L12+4
 111 0012 0A44     		add	r2, r2, r1
 112 0014 1F49     		ldr	r1, .L12+8
 113 0016 A1FB0212 		umull	r1, r2, r1, r2
 114 001a 1209     		lsrs	r2, r2, #4
 115 001c 9200     		lsls	r2, r2, #2
 116 001e 0264     		str	r2, [r0, #64]
 187:Drivers/STM32F1xx_HAL_Driver/Src/stm32f1xx_hal_dma.c ****   }
 117              		.loc 1 187 0
 118 0020 1D4A     		ldr	r2, .L12+12
 119 0022 C263     		str	r2, [r0, #60]
 120 0024 09E0     		b	.L8
 121              	.L7:
 192:Drivers/STM32F1xx_HAL_Driver/Src/stm32f1xx_hal_dma.c ****     hdma->DmaBaseAddress = DMA2;
 122              		.loc 1 192 0
 123 0026 1D4A     		ldr	r2, .L12+16
 124 0028 0A44     		add	r2, r2, r1
 125 002a 1A49     		ldr	r1, .L12+8
 126 002c A1FB0212 		umull	r1, r2, r1, r2
 127 0030 1209     		lsrs	r2, r2, #4
 128 0032 9200     		lsls	r2, r2, #2
 129 0034 0264     		str	r2, [r0, #64]
 193:Drivers/STM32F1xx_HAL_Driver/Src/stm32f1xx_hal_dma.c ****   }
 130              		.loc 1 193 0
 131 0036 1A4A     		ldr	r2, .L12+20
ARM GAS  /tmp/cc6lcHVI.s 			page 19


 132 0038 C263     		str	r2, [r0, #60]
 133              	.L8:
 202:Drivers/STM32F1xx_HAL_Driver/Src/stm32f1xx_hal_dma.c **** 
 134              		.loc 1 202 0
 135 003a 0222     		movs	r2, #2
 136 003c 83F82120 		strb	r2, [r3, #33]
 205:Drivers/STM32F1xx_HAL_Driver/Src/stm32f1xx_hal_dma.c **** 
 137              		.loc 1 205 0
 138 0040 1C68     		ldr	r4, [r3]
 139 0042 2268     		ldr	r2, [r4]
 140              	.LVL6:
 208:Drivers/STM32F1xx_HAL_Driver/Src/stm32f1xx_hal_dma.c ****                       DMA_CCR_MINC  | DMA_CCR_PINC   | DMA_CCR_CIRC   | \
 141              		.loc 1 208 0
 142 0044 22F47F52 		bic	r2, r2, #16320
 143              	.LVL7:
 144 0048 22F03002 		bic	r2, r2, #48
 145              	.LVL8:
 213:Drivers/STM32F1xx_HAL_Driver/Src/stm32f1xx_hal_dma.c ****           hdma->Init.PeriphInc           | hdma->Init.MemInc           |
 146              		.loc 1 213 0
 147 004c 5868     		ldr	r0, [r3, #4]
 148              	.LVL9:
 214:Drivers/STM32F1xx_HAL_Driver/Src/stm32f1xx_hal_dma.c ****           hdma->Init.PeriphDataAlignment | hdma->Init.MemDataAlignment |
 149              		.loc 1 214 0
 150 004e 9968     		ldr	r1, [r3, #8]
 213:Drivers/STM32F1xx_HAL_Driver/Src/stm32f1xx_hal_dma.c ****           hdma->Init.PeriphInc           | hdma->Init.MemInc           |
 151              		.loc 1 213 0
 152 0050 0843     		orrs	r0, r0, r1
 214:Drivers/STM32F1xx_HAL_Driver/Src/stm32f1xx_hal_dma.c ****           hdma->Init.PeriphDataAlignment | hdma->Init.MemDataAlignment |
 153              		.loc 1 214 0
 154 0052 D968     		ldr	r1, [r3, #12]
 155 0054 0843     		orrs	r0, r0, r1
 215:Drivers/STM32F1xx_HAL_Driver/Src/stm32f1xx_hal_dma.c ****           hdma->Init.Mode                | hdma->Init.Priority;
 156              		.loc 1 215 0
 157 0056 1969     		ldr	r1, [r3, #16]
 214:Drivers/STM32F1xx_HAL_Driver/Src/stm32f1xx_hal_dma.c ****           hdma->Init.PeriphDataAlignment | hdma->Init.MemDataAlignment |
 158              		.loc 1 214 0
 159 0058 0843     		orrs	r0, r0, r1
 215:Drivers/STM32F1xx_HAL_Driver/Src/stm32f1xx_hal_dma.c ****           hdma->Init.Mode                | hdma->Init.Priority;
 160              		.loc 1 215 0
 161 005a 5969     		ldr	r1, [r3, #20]
 162 005c 0843     		orrs	r0, r0, r1
 216:Drivers/STM32F1xx_HAL_Driver/Src/stm32f1xx_hal_dma.c **** 
 163              		.loc 1 216 0
 164 005e 9969     		ldr	r1, [r3, #24]
 215:Drivers/STM32F1xx_HAL_Driver/Src/stm32f1xx_hal_dma.c ****           hdma->Init.Mode                | hdma->Init.Priority;
 165              		.loc 1 215 0
 166 0060 0843     		orrs	r0, r0, r1
 216:Drivers/STM32F1xx_HAL_Driver/Src/stm32f1xx_hal_dma.c **** 
 167              		.loc 1 216 0
 168 0062 D969     		ldr	r1, [r3, #28]
 169 0064 0143     		orrs	r1, r1, r0
 213:Drivers/STM32F1xx_HAL_Driver/Src/stm32f1xx_hal_dma.c ****           hdma->Init.PeriphInc           | hdma->Init.MemInc           |
 170              		.loc 1 213 0
 171 0066 0A43     		orrs	r2, r2, r1
 172              	.LVL10:
 219:Drivers/STM32F1xx_HAL_Driver/Src/stm32f1xx_hal_dma.c **** 
 173              		.loc 1 219 0
ARM GAS  /tmp/cc6lcHVI.s 			page 20


 174 0068 2260     		str	r2, [r4]
 223:Drivers/STM32F1xx_HAL_Driver/Src/stm32f1xx_hal_dma.c ****   hdma->XferHalfCpltCallback = NULL;
 175              		.loc 1 223 0
 176 006a 0020     		movs	r0, #0
 177 006c 9862     		str	r0, [r3, #40]
 224:Drivers/STM32F1xx_HAL_Driver/Src/stm32f1xx_hal_dma.c ****   hdma->XferErrorCallback = NULL;
 178              		.loc 1 224 0
 179 006e D862     		str	r0, [r3, #44]
 225:Drivers/STM32F1xx_HAL_Driver/Src/stm32f1xx_hal_dma.c ****   hdma->XferAbortCallback = NULL;
 180              		.loc 1 225 0
 181 0070 1863     		str	r0, [r3, #48]
 226:Drivers/STM32F1xx_HAL_Driver/Src/stm32f1xx_hal_dma.c **** 
 182              		.loc 1 226 0
 183 0072 5863     		str	r0, [r3, #52]
 229:Drivers/STM32F1xx_HAL_Driver/Src/stm32f1xx_hal_dma.c **** 
 184              		.loc 1 229 0
 185 0074 9863     		str	r0, [r3, #56]
 232:Drivers/STM32F1xx_HAL_Driver/Src/stm32f1xx_hal_dma.c ****   /* Allocate lock resource and initialize it */
 186              		.loc 1 232 0
 187 0076 0122     		movs	r2, #1
 188              	.LVL11:
 189 0078 83F82120 		strb	r2, [r3, #33]
 234:Drivers/STM32F1xx_HAL_Driver/Src/stm32f1xx_hal_dma.c ****   
 190              		.loc 1 234 0
 191 007c 83F82000 		strb	r0, [r3, #32]
 236:Drivers/STM32F1xx_HAL_Driver/Src/stm32f1xx_hal_dma.c **** }
 192              		.loc 1 236 0
 193 0080 01E0     		b	.L6
 194              	.LVL12:
 195              	.L9:
 196              	.LCFI3:
 197              		.cfi_def_cfa_offset 0
 198              		.cfi_restore 4
 168:Drivers/STM32F1xx_HAL_Driver/Src/stm32f1xx_hal_dma.c ****   }
 199              		.loc 1 168 0
 200 0082 0120     		movs	r0, #1
 201              	.LVL13:
 202 0084 7047     		bx	lr
 203              	.LVL14:
 204              	.L6:
 205              	.LCFI4:
 206              		.cfi_def_cfa_offset 4
 207              		.cfi_offset 4, -4
 237:Drivers/STM32F1xx_HAL_Driver/Src/stm32f1xx_hal_dma.c **** 
 208              		.loc 1 237 0
 209 0086 5DF8044B 		ldr	r4, [sp], #4
 210              	.LCFI5:
 211              		.cfi_restore 4
 212              		.cfi_def_cfa_offset 0
 213 008a 7047     		bx	lr
 214              	.L13:
 215              		.align	2
 216              	.L12:
 217 008c 07040240 		.word	1073873927
 218 0090 F8FFFDBF 		.word	-1073872904
 219 0094 CDCCCCCC 		.word	-858993459
 220 0098 00000240 		.word	1073872896
ARM GAS  /tmp/cc6lcHVI.s 			page 21


 221 009c F8FBFDBF 		.word	-1073873928
 222 00a0 00040240 		.word	1073873920
 223              		.cfi_endproc
 224              	.LFE63:
 226              		.section	.text.HAL_DMA_DeInit,"ax",%progbits
 227              		.align	2
 228              		.global	HAL_DMA_DeInit
 229              		.thumb
 230              		.thumb_func
 232              	HAL_DMA_DeInit:
 233              	.LFB64:
 246:Drivers/STM32F1xx_HAL_Driver/Src/stm32f1xx_hal_dma.c ****   /* Check the DMA handle allocation */
 234              		.loc 1 246 0
 235              		.cfi_startproc
 236              		@ args = 0, pretend = 0, frame = 0
 237              		@ frame_needed = 0, uses_anonymous_args = 0
 238              		@ link register save eliminated.
 239              	.LVL15:
 248:Drivers/STM32F1xx_HAL_Driver/Src/stm32f1xx_hal_dma.c ****   {
 240              		.loc 1 248 0
 241 0000 0346     		mov	r3, r0
 242 0002 0028     		cmp	r0, #0
 243 0004 32D0     		beq	.L18
 257:Drivers/STM32F1xx_HAL_Driver/Src/stm32f1xx_hal_dma.c **** 
 244              		.loc 1 257 0
 245 0006 0168     		ldr	r1, [r0]
 246 0008 0A68     		ldr	r2, [r1]
 247 000a 22F00102 		bic	r2, r2, #1
 248 000e 0A60     		str	r2, [r1]
 260:Drivers/STM32F1xx_HAL_Driver/Src/stm32f1xx_hal_dma.c **** 
 249              		.loc 1 260 0
 250 0010 0168     		ldr	r1, [r0]
 251 0012 0022     		movs	r2, #0
 252 0014 0A60     		str	r2, [r1]
 263:Drivers/STM32F1xx_HAL_Driver/Src/stm32f1xx_hal_dma.c **** 
 253              		.loc 1 263 0
 254 0016 0168     		ldr	r1, [r0]
 255 0018 4A60     		str	r2, [r1, #4]
 266:Drivers/STM32F1xx_HAL_Driver/Src/stm32f1xx_hal_dma.c **** 
 256              		.loc 1 266 0
 257 001a 0168     		ldr	r1, [r0]
 258 001c 8A60     		str	r2, [r1, #8]
 269:Drivers/STM32F1xx_HAL_Driver/Src/stm32f1xx_hal_dma.c **** 
 259              		.loc 1 269 0
 260 001e 0168     		ldr	r1, [r0]
 261 0020 CA60     		str	r2, [r1, #12]
 273:Drivers/STM32F1xx_HAL_Driver/Src/stm32f1xx_hal_dma.c ****   {
 262              		.loc 1 273 0
 263 0022 0168     		ldr	r1, [r0]
 264 0024 124A     		ldr	r2, .L19
 265 0026 9142     		cmp	r1, r2
 266 0028 0AD8     		bhi	.L16
 276:Drivers/STM32F1xx_HAL_Driver/Src/stm32f1xx_hal_dma.c ****     hdma->DmaBaseAddress = DMA1;
 267              		.loc 1 276 0
 268 002a 124A     		ldr	r2, .L19+4
 269 002c 0A44     		add	r2, r2, r1
 270 002e 1249     		ldr	r1, .L19+8
ARM GAS  /tmp/cc6lcHVI.s 			page 22


 271 0030 A1FB0212 		umull	r1, r2, r1, r2
 272 0034 1209     		lsrs	r2, r2, #4
 273 0036 9200     		lsls	r2, r2, #2
 274 0038 0264     		str	r2, [r0, #64]
 277:Drivers/STM32F1xx_HAL_Driver/Src/stm32f1xx_hal_dma.c ****   }
 275              		.loc 1 277 0
 276 003a 104A     		ldr	r2, .L19+12
 277 003c C263     		str	r2, [r0, #60]
 278 003e 09E0     		b	.L17
 279              	.L16:
 282:Drivers/STM32F1xx_HAL_Driver/Src/stm32f1xx_hal_dma.c ****     hdma->DmaBaseAddress = DMA2;
 280              		.loc 1 282 0
 281 0040 0F4A     		ldr	r2, .L19+16
 282 0042 0A44     		add	r2, r2, r1
 283 0044 0C49     		ldr	r1, .L19+8
 284 0046 A1FB0212 		umull	r1, r2, r1, r2
 285 004a 1209     		lsrs	r2, r2, #4
 286 004c 9200     		lsls	r2, r2, #2
 287 004e 0264     		str	r2, [r0, #64]
 283:Drivers/STM32F1xx_HAL_Driver/Src/stm32f1xx_hal_dma.c ****   }
 288              		.loc 1 283 0
 289 0050 0C4A     		ldr	r2, .L19+20
 290 0052 C263     		str	r2, [r0, #60]
 291              	.L17:
 292:Drivers/STM32F1xx_HAL_Driver/Src/stm32f1xx_hal_dma.c **** 
 292              		.loc 1 292 0
 293 0054 D96B     		ldr	r1, [r3, #60]
 294 0056 186C     		ldr	r0, [r3, #64]
 295              	.LVL16:
 296 0058 0122     		movs	r2, #1
 297 005a 8240     		lsls	r2, r2, r0
 298 005c 4A60     		str	r2, [r1, #4]
 295:Drivers/STM32F1xx_HAL_Driver/Src/stm32f1xx_hal_dma.c **** 
 299              		.loc 1 295 0
 300 005e 0020     		movs	r0, #0
 301 0060 9863     		str	r0, [r3, #56]
 298:Drivers/STM32F1xx_HAL_Driver/Src/stm32f1xx_hal_dma.c **** 
 302              		.loc 1 298 0
 303 0062 83F82100 		strb	r0, [r3, #33]
 301:Drivers/STM32F1xx_HAL_Driver/Src/stm32f1xx_hal_dma.c **** 
 304              		.loc 1 301 0
 305 0066 83F82000 		strb	r0, [r3, #32]
 303:Drivers/STM32F1xx_HAL_Driver/Src/stm32f1xx_hal_dma.c **** }
 306              		.loc 1 303 0
 307 006a 7047     		bx	lr
 308              	.LVL17:
 309              	.L18:
 250:Drivers/STM32F1xx_HAL_Driver/Src/stm32f1xx_hal_dma.c ****   }
 310              		.loc 1 250 0
 311 006c 0120     		movs	r0, #1
 312              	.LVL18:
 304:Drivers/STM32F1xx_HAL_Driver/Src/stm32f1xx_hal_dma.c **** 
 313              		.loc 1 304 0
 314 006e 7047     		bx	lr
 315              	.L20:
 316              		.align	2
 317              	.L19:
ARM GAS  /tmp/cc6lcHVI.s 			page 23


 318 0070 07040240 		.word	1073873927
 319 0074 F8FFFDBF 		.word	-1073872904
 320 0078 CDCCCCCC 		.word	-858993459
 321 007c 00000240 		.word	1073872896
 322 0080 F8FBFDBF 		.word	-1073873928
 323 0084 00040240 		.word	1073873920
 324              		.cfi_endproc
 325              	.LFE64:
 327              		.section	.text.HAL_DMA_Start,"ax",%progbits
 328              		.align	2
 329              		.global	HAL_DMA_Start
 330              		.thumb
 331              		.thumb_func
 333              	HAL_DMA_Start:
 334              	.LFB65:
 339:Drivers/STM32F1xx_HAL_Driver/Src/stm32f1xx_hal_dma.c ****   HAL_StatusTypeDef status = HAL_OK;
 335              		.loc 1 339 0
 336              		.cfi_startproc
 337              		@ args = 0, pretend = 0, frame = 0
 338              		@ frame_needed = 0, uses_anonymous_args = 0
 339              	.LVL19:
 340 0000 70B5     		push	{r4, r5, r6, lr}
 341              	.LCFI6:
 342              		.cfi_def_cfa_offset 16
 343              		.cfi_offset 4, -16
 344              		.cfi_offset 5, -12
 345              		.cfi_offset 6, -8
 346              		.cfi_offset 14, -4
 347              	.LVL20:
 346:Drivers/STM32F1xx_HAL_Driver/Src/stm32f1xx_hal_dma.c **** 
 348              		.loc 1 346 0
 349 0002 90F82040 		ldrb	r4, [r0, #32]	@ zero_extendqisi2
 350 0006 012C     		cmp	r4, #1
 351 0008 20D0     		beq	.L25
 346:Drivers/STM32F1xx_HAL_Driver/Src/stm32f1xx_hal_dma.c **** 
 352              		.loc 1 346 0 is_stmt 0 discriminator 2
 353 000a 0124     		movs	r4, #1
 354 000c 80F82040 		strb	r4, [r0, #32]
 348:Drivers/STM32F1xx_HAL_Driver/Src/stm32f1xx_hal_dma.c ****   {
 355              		.loc 1 348 0 is_stmt 1 discriminator 2
 356 0010 90F82140 		ldrb	r4, [r0, #33]	@ zero_extendqisi2
 357 0014 012C     		cmp	r4, #1
 358 0016 14D1     		bne	.L23
 359 0018 0446     		mov	r4, r0
 351:Drivers/STM32F1xx_HAL_Driver/Src/stm32f1xx_hal_dma.c ****     hdma->ErrorCode = HAL_DMA_ERROR_NONE;
 360              		.loc 1 351 0
 361 001a 0220     		movs	r0, #2
 362              	.LVL21:
 363 001c 84F82100 		strb	r0, [r4, #33]
 352:Drivers/STM32F1xx_HAL_Driver/Src/stm32f1xx_hal_dma.c ****             
 364              		.loc 1 352 0
 365 0020 0025     		movs	r5, #0
 366 0022 A563     		str	r5, [r4, #56]
 355:Drivers/STM32F1xx_HAL_Driver/Src/stm32f1xx_hal_dma.c ****     
 367              		.loc 1 355 0
 368 0024 2668     		ldr	r6, [r4]
 369 0026 3068     		ldr	r0, [r6]
ARM GAS  /tmp/cc6lcHVI.s 			page 24


 370 0028 20F00100 		bic	r0, r0, #1
 371 002c 3060     		str	r0, [r6]
 358:Drivers/STM32F1xx_HAL_Driver/Src/stm32f1xx_hal_dma.c ****     
 372              		.loc 1 358 0
 373 002e 2046     		mov	r0, r4
 374 0030 FFF7FEFF 		bl	DMA_SetConfig
 375              	.LVL22:
 361:Drivers/STM32F1xx_HAL_Driver/Src/stm32f1xx_hal_dma.c ****   }
 376              		.loc 1 361 0
 377 0034 2268     		ldr	r2, [r4]
 378 0036 1368     		ldr	r3, [r2]
 379 0038 43F00103 		orr	r3, r3, #1
 380 003c 1360     		str	r3, [r2]
 340:Drivers/STM32F1xx_HAL_Driver/Src/stm32f1xx_hal_dma.c **** 
 381              		.loc 1 340 0
 382 003e 2846     		mov	r0, r5
 383 0040 70BD     		pop	{r4, r5, r6, pc}
 384              	.LVL23:
 385              	.L23:
 366:Drivers/STM32F1xx_HAL_Driver/Src/stm32f1xx_hal_dma.c ****    status = HAL_BUSY;
 386              		.loc 1 366 0
 387 0042 0023     		movs	r3, #0
 388              	.LVL24:
 389 0044 80F82030 		strb	r3, [r0, #32]
 390              	.LVL25:
 367:Drivers/STM32F1xx_HAL_Driver/Src/stm32f1xx_hal_dma.c ****   }  
 391              		.loc 1 367 0
 392 0048 0220     		movs	r0, #2
 393              	.LVL26:
 369:Drivers/STM32F1xx_HAL_Driver/Src/stm32f1xx_hal_dma.c **** }
 394              		.loc 1 369 0
 395 004a 70BD     		pop	{r4, r5, r6, pc}
 396              	.LVL27:
 397              	.L25:
 346:Drivers/STM32F1xx_HAL_Driver/Src/stm32f1xx_hal_dma.c **** 
 398              		.loc 1 346 0
 399 004c 0220     		movs	r0, #2
 400              	.LVL28:
 370:Drivers/STM32F1xx_HAL_Driver/Src/stm32f1xx_hal_dma.c **** 
 401              		.loc 1 370 0
 402 004e 70BD     		pop	{r4, r5, r6, pc}
 403              		.cfi_endproc
 404              	.LFE65:
 406              		.section	.text.HAL_DMA_Start_IT,"ax",%progbits
 407              		.align	2
 408              		.global	HAL_DMA_Start_IT
 409              		.thumb
 410              		.thumb_func
 412              	HAL_DMA_Start_IT:
 413              	.LFB66:
 382:Drivers/STM32F1xx_HAL_Driver/Src/stm32f1xx_hal_dma.c ****   HAL_StatusTypeDef status = HAL_OK;
 414              		.loc 1 382 0
 415              		.cfi_startproc
 416              		@ args = 0, pretend = 0, frame = 0
 417              		@ frame_needed = 0, uses_anonymous_args = 0
 418              	.LVL29:
 419 0000 38B5     		push	{r3, r4, r5, lr}
ARM GAS  /tmp/cc6lcHVI.s 			page 25


 420              	.LCFI7:
 421              		.cfi_def_cfa_offset 16
 422              		.cfi_offset 3, -16
 423              		.cfi_offset 4, -12
 424              		.cfi_offset 5, -8
 425              		.cfi_offset 14, -4
 426              	.LVL30:
 389:Drivers/STM32F1xx_HAL_Driver/Src/stm32f1xx_hal_dma.c ****   
 427              		.loc 1 389 0
 428 0002 90F82040 		ldrb	r4, [r0, #32]	@ zero_extendqisi2
 429 0006 012C     		cmp	r4, #1
 430 0008 32D0     		beq	.L33
 389:Drivers/STM32F1xx_HAL_Driver/Src/stm32f1xx_hal_dma.c ****   
 431              		.loc 1 389 0 is_stmt 0 discriminator 2
 432 000a 0124     		movs	r4, #1
 433 000c 80F82040 		strb	r4, [r0, #32]
 391:Drivers/STM32F1xx_HAL_Driver/Src/stm32f1xx_hal_dma.c ****   {
 434              		.loc 1 391 0 is_stmt 1 discriminator 2
 435 0010 90F82140 		ldrb	r4, [r0, #33]	@ zero_extendqisi2
 436 0014 012C     		cmp	r4, #1
 437 0016 26D1     		bne	.L29
 438 0018 0446     		mov	r4, r0
 394:Drivers/STM32F1xx_HAL_Driver/Src/stm32f1xx_hal_dma.c ****     hdma->ErrorCode = HAL_DMA_ERROR_NONE;
 439              		.loc 1 394 0
 440 001a 0220     		movs	r0, #2
 441              	.LVL31:
 442 001c 84F82100 		strb	r0, [r4, #33]
 395:Drivers/STM32F1xx_HAL_Driver/Src/stm32f1xx_hal_dma.c ****     
 443              		.loc 1 395 0
 444 0020 0020     		movs	r0, #0
 445 0022 A063     		str	r0, [r4, #56]
 398:Drivers/STM32F1xx_HAL_Driver/Src/stm32f1xx_hal_dma.c ****     
 446              		.loc 1 398 0
 447 0024 2568     		ldr	r5, [r4]
 448 0026 2868     		ldr	r0, [r5]
 449 0028 20F00100 		bic	r0, r0, #1
 450 002c 2860     		str	r0, [r5]
 401:Drivers/STM32F1xx_HAL_Driver/Src/stm32f1xx_hal_dma.c ****     
 451              		.loc 1 401 0
 452 002e 2046     		mov	r0, r4
 453 0030 FFF7FEFF 		bl	DMA_SetConfig
 454              	.LVL32:
 405:Drivers/STM32F1xx_HAL_Driver/Src/stm32f1xx_hal_dma.c ****     {
 455              		.loc 1 405 0
 456 0034 E36A     		ldr	r3, [r4, #44]
 457 0036 2BB1     		cbz	r3, .L30
 408:Drivers/STM32F1xx_HAL_Driver/Src/stm32f1xx_hal_dma.c ****     }
 458              		.loc 1 408 0
 459 0038 2268     		ldr	r2, [r4]
 460 003a 1368     		ldr	r3, [r2]
 461 003c 43F00E03 		orr	r3, r3, #14
 462 0040 1360     		str	r3, [r2]
 463 0042 09E0     		b	.L31
 464              	.L30:
 412:Drivers/STM32F1xx_HAL_Driver/Src/stm32f1xx_hal_dma.c ****       __HAL_DMA_ENABLE_IT(hdma, (DMA_IT_TC | DMA_IT_TE));
 465              		.loc 1 412 0
 466 0044 2268     		ldr	r2, [r4]
ARM GAS  /tmp/cc6lcHVI.s 			page 26


 467 0046 1368     		ldr	r3, [r2]
 468 0048 23F00403 		bic	r3, r3, #4
 469 004c 1360     		str	r3, [r2]
 413:Drivers/STM32F1xx_HAL_Driver/Src/stm32f1xx_hal_dma.c ****     }
 470              		.loc 1 413 0
 471 004e 2268     		ldr	r2, [r4]
 472 0050 1368     		ldr	r3, [r2]
 473 0052 43F00A03 		orr	r3, r3, #10
 474 0056 1360     		str	r3, [r2]
 475              	.L31:
 416:Drivers/STM32F1xx_HAL_Driver/Src/stm32f1xx_hal_dma.c ****   }
 476              		.loc 1 416 0
 477 0058 2268     		ldr	r2, [r4]
 478 005a 1368     		ldr	r3, [r2]
 479 005c 43F00103 		orr	r3, r3, #1
 480 0060 1360     		str	r3, [r2]
 383:Drivers/STM32F1xx_HAL_Driver/Src/stm32f1xx_hal_dma.c **** 
 481              		.loc 1 383 0
 482 0062 0020     		movs	r0, #0
 483 0064 38BD     		pop	{r3, r4, r5, pc}
 484              	.LVL33:
 485              	.L29:
 421:Drivers/STM32F1xx_HAL_Driver/Src/stm32f1xx_hal_dma.c **** 
 486              		.loc 1 421 0
 487 0066 0023     		movs	r3, #0
 488              	.LVL34:
 489 0068 80F82030 		strb	r3, [r0, #32]
 490              	.LVL35:
 424:Drivers/STM32F1xx_HAL_Driver/Src/stm32f1xx_hal_dma.c ****   }    
 491              		.loc 1 424 0
 492 006c 0220     		movs	r0, #2
 493              	.LVL36:
 426:Drivers/STM32F1xx_HAL_Driver/Src/stm32f1xx_hal_dma.c **** }
 494              		.loc 1 426 0
 495 006e 38BD     		pop	{r3, r4, r5, pc}
 496              	.LVL37:
 497              	.L33:
 389:Drivers/STM32F1xx_HAL_Driver/Src/stm32f1xx_hal_dma.c ****   
 498              		.loc 1 389 0
 499 0070 0220     		movs	r0, #2
 500              	.LVL38:
 427:Drivers/STM32F1xx_HAL_Driver/Src/stm32f1xx_hal_dma.c **** 
 501              		.loc 1 427 0
 502 0072 38BD     		pop	{r3, r4, r5, pc}
 503              		.cfi_endproc
 504              	.LFE66:
 506              		.section	.text.HAL_DMA_Abort,"ax",%progbits
 507              		.align	2
 508              		.global	HAL_DMA_Abort
 509              		.thumb
 510              		.thumb_func
 512              	HAL_DMA_Abort:
 513              	.LFB67:
 436:Drivers/STM32F1xx_HAL_Driver/Src/stm32f1xx_hal_dma.c ****   HAL_StatusTypeDef status = HAL_OK;
 514              		.loc 1 436 0
 515              		.cfi_startproc
 516              		@ args = 0, pretend = 0, frame = 0
ARM GAS  /tmp/cc6lcHVI.s 			page 27


 517              		@ frame_needed = 0, uses_anonymous_args = 0
 518              		@ link register save eliminated.
 519              	.LVL39:
 520 0000 0346     		mov	r3, r0
 521              	.LVL40:
 440:Drivers/STM32F1xx_HAL_Driver/Src/stm32f1xx_hal_dma.c ****     
 522              		.loc 1 440 0
 523 0002 0168     		ldr	r1, [r0]
 524 0004 0A68     		ldr	r2, [r1]
 525 0006 22F00E02 		bic	r2, r2, #14
 526 000a 0A60     		str	r2, [r1]
 443:Drivers/STM32F1xx_HAL_Driver/Src/stm32f1xx_hal_dma.c ****     
 527              		.loc 1 443 0
 528 000c 0168     		ldr	r1, [r0]
 529 000e 0A68     		ldr	r2, [r1]
 530 0010 22F00102 		bic	r2, r2, #1
 531 0014 0A60     		str	r2, [r1]
 446:Drivers/STM32F1xx_HAL_Driver/Src/stm32f1xx_hal_dma.c **** 
 532              		.loc 1 446 0
 533 0016 C16B     		ldr	r1, [r0, #60]
 534 0018 006C     		ldr	r0, [r0, #64]
 535              	.LVL41:
 536 001a 0122     		movs	r2, #1
 537 001c 02FA00F0 		lsl	r0, r2, r0
 538 0020 4860     		str	r0, [r1, #4]
 449:Drivers/STM32F1xx_HAL_Driver/Src/stm32f1xx_hal_dma.c **** 
 539              		.loc 1 449 0
 540 0022 83F82120 		strb	r2, [r3, #33]
 452:Drivers/STM32F1xx_HAL_Driver/Src/stm32f1xx_hal_dma.c ****   
 541              		.loc 1 452 0
 542 0026 0020     		movs	r0, #0
 543 0028 83F82000 		strb	r0, [r3, #32]
 455:Drivers/STM32F1xx_HAL_Driver/Src/stm32f1xx_hal_dma.c **** 
 544              		.loc 1 455 0
 545 002c 7047     		bx	lr
 546              		.cfi_endproc
 547              	.LFE67:
 549 002e 00BF     		.section	.text.HAL_DMA_Abort_IT,"ax",%progbits
 550              		.align	2
 551              		.global	HAL_DMA_Abort_IT
 552              		.thumb
 553              		.thumb_func
 555              	HAL_DMA_Abort_IT:
 556              	.LFB68:
 464:Drivers/STM32F1xx_HAL_Driver/Src/stm32f1xx_hal_dma.c ****   HAL_StatusTypeDef status = HAL_OK;
 557              		.loc 1 464 0
 558              		.cfi_startproc
 559              		@ args = 0, pretend = 0, frame = 0
 560              		@ frame_needed = 0, uses_anonymous_args = 0
 561              	.LVL42:
 562 0000 08B5     		push	{r3, lr}
 563              	.LCFI8:
 564              		.cfi_def_cfa_offset 8
 565              		.cfi_offset 3, -8
 566              		.cfi_offset 14, -4
 567              	.LVL43:
 467:Drivers/STM32F1xx_HAL_Driver/Src/stm32f1xx_hal_dma.c ****   {
ARM GAS  /tmp/cc6lcHVI.s 			page 28


 568              		.loc 1 467 0
 569 0002 90F82130 		ldrb	r3, [r0, #33]	@ zero_extendqisi2
 570 0006 022B     		cmp	r3, #2
 571 0008 03D0     		beq	.L37
 470:Drivers/STM32F1xx_HAL_Driver/Src/stm32f1xx_hal_dma.c ****         
 572              		.loc 1 470 0
 573 000a 0423     		movs	r3, #4
 574 000c 8363     		str	r3, [r0, #56]
 575              	.LVL44:
 472:Drivers/STM32F1xx_HAL_Driver/Src/stm32f1xx_hal_dma.c ****   }
 576              		.loc 1 472 0
 577 000e 0120     		movs	r0, #1
 578              	.LVL45:
 579 0010 08BD     		pop	{r3, pc}
 580              	.LVL46:
 581              	.L37:
 477:Drivers/STM32F1xx_HAL_Driver/Src/stm32f1xx_hal_dma.c **** 
 582              		.loc 1 477 0
 583 0012 0268     		ldr	r2, [r0]
 584 0014 1368     		ldr	r3, [r2]
 585 0016 23F00E03 		bic	r3, r3, #14
 586 001a 1360     		str	r3, [r2]
 480:Drivers/STM32F1xx_HAL_Driver/Src/stm32f1xx_hal_dma.c **** 
 587              		.loc 1 480 0
 588 001c 0268     		ldr	r2, [r0]
 589 001e 1368     		ldr	r3, [r2]
 590 0020 23F00103 		bic	r3, r3, #1
 591 0024 1360     		str	r3, [r2]
 483:Drivers/STM32F1xx_HAL_Driver/Src/stm32f1xx_hal_dma.c **** 
 592              		.loc 1 483 0
 593 0026 0368     		ldr	r3, [r0]
 594 0028 4B4A     		ldr	r2, .L87
 595 002a 9342     		cmp	r3, r2
 596 002c 43D9     		bls	.L39
 483:Drivers/STM32F1xx_HAL_Driver/Src/stm32f1xx_hal_dma.c **** 
 597              		.loc 1 483 0 is_stmt 0 discriminator 1
 598 002e 783A     		subs	r2, r2, #120
 599 0030 9342     		cmp	r3, r2
 600 0032 3CD0     		beq	.L63
 483:Drivers/STM32F1xx_HAL_Driver/Src/stm32f1xx_hal_dma.c **** 
 601              		.loc 1 483 0 discriminator 3
 602 0034 1432     		adds	r2, r2, #20
 603 0036 9342     		cmp	r3, r2
 604 0038 37D0     		beq	.L64
 483:Drivers/STM32F1xx_HAL_Driver/Src/stm32f1xx_hal_dma.c **** 
 605              		.loc 1 483 0 discriminator 5
 606 003a 1432     		adds	r2, r2, #20
 607 003c 9342     		cmp	r3, r2
 608 003e 31D0     		beq	.L65
 483:Drivers/STM32F1xx_HAL_Driver/Src/stm32f1xx_hal_dma.c **** 
 609              		.loc 1 483 0 discriminator 7
 610 0040 1432     		adds	r2, r2, #20
 611 0042 9342     		cmp	r3, r2
 612 0044 2BD0     		beq	.L66
 483:Drivers/STM32F1xx_HAL_Driver/Src/stm32f1xx_hal_dma.c **** 
 613              		.loc 1 483 0 discriminator 9
 614 0046 1432     		adds	r2, r2, #20
ARM GAS  /tmp/cc6lcHVI.s 			page 29


 615 0048 9342     		cmp	r3, r2
 616 004a 25D0     		beq	.L67
 483:Drivers/STM32F1xx_HAL_Driver/Src/stm32f1xx_hal_dma.c **** 
 617              		.loc 1 483 0 discriminator 11
 618 004c 1432     		adds	r2, r2, #20
 619 004e 9342     		cmp	r3, r2
 620 0050 1FD0     		beq	.L68
 483:Drivers/STM32F1xx_HAL_Driver/Src/stm32f1xx_hal_dma.c **** 
 621              		.loc 1 483 0 discriminator 13
 622 0052 1432     		adds	r2, r2, #20
 623 0054 9342     		cmp	r3, r2
 624 0056 19D0     		beq	.L69
 483:Drivers/STM32F1xx_HAL_Driver/Src/stm32f1xx_hal_dma.c **** 
 625              		.loc 1 483 0 discriminator 15
 626 0058 02F56272 		add	r2, r2, #904
 627 005c 9342     		cmp	r3, r2
 628 005e 13D0     		beq	.L70
 483:Drivers/STM32F1xx_HAL_Driver/Src/stm32f1xx_hal_dma.c **** 
 629              		.loc 1 483 0 discriminator 17
 630 0060 1432     		adds	r2, r2, #20
 631 0062 9342     		cmp	r3, r2
 632 0064 0ED0     		beq	.L71
 483:Drivers/STM32F1xx_HAL_Driver/Src/stm32f1xx_hal_dma.c **** 
 633              		.loc 1 483 0 discriminator 19
 634 0066 1432     		adds	r2, r2, #20
 635 0068 9342     		cmp	r3, r2
 636 006a 08D0     		beq	.L72
 483:Drivers/STM32F1xx_HAL_Driver/Src/stm32f1xx_hal_dma.c **** 
 637              		.loc 1 483 0 discriminator 21
 638 006c 1432     		adds	r2, r2, #20
 639 006e 9342     		cmp	r3, r2
 640 0070 02D1     		bne	.L73
 483:Drivers/STM32F1xx_HAL_Driver/Src/stm32f1xx_hal_dma.c **** 
 641              		.loc 1 483 0
 642 0072 4FF48052 		mov	r2, #4096
 643 0076 1BE0     		b	.L40
 644              	.L73:
 645 0078 4FF48032 		mov	r2, #65536
 646 007c 18E0     		b	.L40
 647              	.L72:
 648 007e 4FF48072 		mov	r2, #256
 649 0082 15E0     		b	.L40
 650              	.L71:
 651 0084 1022     		movs	r2, #16
 652 0086 13E0     		b	.L40
 653              	.L70:
 654 0088 0122     		movs	r2, #1
 655 008a 11E0     		b	.L40
 656              	.L69:
 657 008c 4FF08072 		mov	r2, #16777216
 658 0090 0EE0     		b	.L40
 659              	.L68:
 660 0092 4FF48012 		mov	r2, #1048576
 661 0096 0BE0     		b	.L40
 662              	.L67:
 663 0098 4FF48032 		mov	r2, #65536
 664 009c 08E0     		b	.L40
ARM GAS  /tmp/cc6lcHVI.s 			page 30


 665              	.L66:
 666 009e 4FF48052 		mov	r2, #4096
 667 00a2 05E0     		b	.L40
 668              	.L65:
 669 00a4 4FF48072 		mov	r2, #256
 670 00a8 02E0     		b	.L40
 671              	.L64:
 672 00aa 1022     		movs	r2, #16
 673 00ac 00E0     		b	.L40
 674              	.L63:
 675 00ae 0122     		movs	r2, #1
 676              	.L40:
 483:Drivers/STM32F1xx_HAL_Driver/Src/stm32f1xx_hal_dma.c **** 
 677              		.loc 1 483 0 discriminator 46
 678 00b0 2A4B     		ldr	r3, .L87+4
 679 00b2 5A60     		str	r2, [r3, #4]
 680 00b4 42E0     		b	.L51
 681              	.L39:
 483:Drivers/STM32F1xx_HAL_Driver/Src/stm32f1xx_hal_dma.c **** 
 682              		.loc 1 483 0 discriminator 2
 683 00b6 2A4A     		ldr	r2, .L87+8
 684 00b8 9342     		cmp	r3, r2
 685 00ba 3CD0     		beq	.L74
 483:Drivers/STM32F1xx_HAL_Driver/Src/stm32f1xx_hal_dma.c **** 
 686              		.loc 1 483 0 discriminator 47
 687 00bc 1432     		adds	r2, r2, #20
 688 00be 9342     		cmp	r3, r2
 689 00c0 37D0     		beq	.L75
 483:Drivers/STM32F1xx_HAL_Driver/Src/stm32f1xx_hal_dma.c **** 
 690              		.loc 1 483 0 discriminator 49
 691 00c2 1432     		adds	r2, r2, #20
 692 00c4 9342     		cmp	r3, r2
 693 00c6 31D0     		beq	.L76
 483:Drivers/STM32F1xx_HAL_Driver/Src/stm32f1xx_hal_dma.c **** 
 694              		.loc 1 483 0 discriminator 51
 695 00c8 1432     		adds	r2, r2, #20
 696 00ca 9342     		cmp	r3, r2
 697 00cc 2BD0     		beq	.L77
 483:Drivers/STM32F1xx_HAL_Driver/Src/stm32f1xx_hal_dma.c **** 
 698              		.loc 1 483 0 discriminator 53
 699 00ce 1432     		adds	r2, r2, #20
 700 00d0 9342     		cmp	r3, r2
 701 00d2 25D0     		beq	.L78
 483:Drivers/STM32F1xx_HAL_Driver/Src/stm32f1xx_hal_dma.c **** 
 702              		.loc 1 483 0 discriminator 55
 703 00d4 1432     		adds	r2, r2, #20
 704 00d6 9342     		cmp	r3, r2
 705 00d8 1FD0     		beq	.L79
 483:Drivers/STM32F1xx_HAL_Driver/Src/stm32f1xx_hal_dma.c **** 
 706              		.loc 1 483 0 discriminator 57
 707 00da 1432     		adds	r2, r2, #20
 708 00dc 9342     		cmp	r3, r2
 709 00de 19D0     		beq	.L80
 483:Drivers/STM32F1xx_HAL_Driver/Src/stm32f1xx_hal_dma.c **** 
 710              		.loc 1 483 0 discriminator 59
 711 00e0 02F56272 		add	r2, r2, #904
 712 00e4 9342     		cmp	r3, r2
ARM GAS  /tmp/cc6lcHVI.s 			page 31


 713 00e6 13D0     		beq	.L81
 483:Drivers/STM32F1xx_HAL_Driver/Src/stm32f1xx_hal_dma.c **** 
 714              		.loc 1 483 0 discriminator 61
 715 00e8 1432     		adds	r2, r2, #20
 716 00ea 9342     		cmp	r3, r2
 717 00ec 0ED0     		beq	.L82
 483:Drivers/STM32F1xx_HAL_Driver/Src/stm32f1xx_hal_dma.c **** 
 718              		.loc 1 483 0 discriminator 63
 719 00ee 1432     		adds	r2, r2, #20
 720 00f0 9342     		cmp	r3, r2
 721 00f2 08D0     		beq	.L83
 483:Drivers/STM32F1xx_HAL_Driver/Src/stm32f1xx_hal_dma.c **** 
 722              		.loc 1 483 0 discriminator 65
 723 00f4 1432     		adds	r2, r2, #20
 724 00f6 9342     		cmp	r3, r2
 725 00f8 02D1     		bne	.L84
 483:Drivers/STM32F1xx_HAL_Driver/Src/stm32f1xx_hal_dma.c **** 
 726              		.loc 1 483 0
 727 00fa 4FF48052 		mov	r2, #4096
 728 00fe 1BE0     		b	.L52
 729              	.L84:
 730 0100 4FF48032 		mov	r2, #65536
 731 0104 18E0     		b	.L52
 732              	.L83:
 733 0106 4FF48072 		mov	r2, #256
 734 010a 15E0     		b	.L52
 735              	.L82:
 736 010c 1022     		movs	r2, #16
 737 010e 13E0     		b	.L52
 738              	.L81:
 739 0110 0122     		movs	r2, #1
 740 0112 11E0     		b	.L52
 741              	.L80:
 742 0114 4FF08072 		mov	r2, #16777216
 743 0118 0EE0     		b	.L52
 744              	.L79:
 745 011a 4FF48012 		mov	r2, #1048576
 746 011e 0BE0     		b	.L52
 747              	.L78:
 748 0120 4FF48032 		mov	r2, #65536
 749 0124 08E0     		b	.L52
 750              	.L77:
 751 0126 4FF48052 		mov	r2, #4096
 752 012a 05E0     		b	.L52
 753              	.L76:
 754 012c 4FF48072 		mov	r2, #256
 755 0130 02E0     		b	.L52
 756              	.L75:
 757 0132 1022     		movs	r2, #16
 758 0134 00E0     		b	.L52
 759              	.L74:
 760 0136 0122     		movs	r2, #1
 761              	.L52:
 483:Drivers/STM32F1xx_HAL_Driver/Src/stm32f1xx_hal_dma.c **** 
 762              		.loc 1 483 0 discriminator 90
 763 0138 0A4B     		ldr	r3, .L87+12
 764 013a 5A60     		str	r2, [r3, #4]
ARM GAS  /tmp/cc6lcHVI.s 			page 32


 765              	.L51:
 486:Drivers/STM32F1xx_HAL_Driver/Src/stm32f1xx_hal_dma.c **** 
 766              		.loc 1 486 0 is_stmt 1
 767 013c 0123     		movs	r3, #1
 768 013e 80F82130 		strb	r3, [r0, #33]
 489:Drivers/STM32F1xx_HAL_Driver/Src/stm32f1xx_hal_dma.c **** 
 769              		.loc 1 489 0
 770 0142 0023     		movs	r3, #0
 771 0144 80F82030 		strb	r3, [r0, #32]
 492:Drivers/STM32F1xx_HAL_Driver/Src/stm32f1xx_hal_dma.c ****     {
 772              		.loc 1 492 0
 773 0148 436B     		ldr	r3, [r0, #52]
 774 014a 13B1     		cbz	r3, .L85
 494:Drivers/STM32F1xx_HAL_Driver/Src/stm32f1xx_hal_dma.c ****     } 
 775              		.loc 1 494 0
 776 014c 9847     		blx	r3
 777              	.LVL47:
 465:Drivers/STM32F1xx_HAL_Driver/Src/stm32f1xx_hal_dma.c ****   
 778              		.loc 1 465 0
 779 014e 0020     		movs	r0, #0
 780 0150 08BD     		pop	{r3, pc}
 781              	.LVL48:
 782              	.L85:
 783 0152 0020     		movs	r0, #0
 784              	.LVL49:
 498:Drivers/STM32F1xx_HAL_Driver/Src/stm32f1xx_hal_dma.c **** 
 785              		.loc 1 498 0
 786 0154 08BD     		pop	{r3, pc}
 787              	.L88:
 788 0156 00BF     		.align	2
 789              	.L87:
 790 0158 80000240 		.word	1073873024
 791 015c 00040240 		.word	1073873920
 792 0160 08000240 		.word	1073872904
 793 0164 00000240 		.word	1073872896
 794              		.cfi_endproc
 795              	.LFE68:
 797              		.section	.text.HAL_DMA_PollForTransfer,"ax",%progbits
 798              		.align	2
 799              		.global	HAL_DMA_PollForTransfer
 800              		.thumb
 801              		.thumb_func
 803              	HAL_DMA_PollForTransfer:
 804              	.LFB69:
 509:Drivers/STM32F1xx_HAL_Driver/Src/stm32f1xx_hal_dma.c ****   uint32_t temp;
 805              		.loc 1 509 0
 806              		.cfi_startproc
 807              		@ args = 0, pretend = 0, frame = 0
 808              		@ frame_needed = 0, uses_anonymous_args = 0
 809              	.LVL50:
 513:Drivers/STM32F1xx_HAL_Driver/Src/stm32f1xx_hal_dma.c ****   {
 810              		.loc 1 513 0
 811 0000 90F82130 		ldrb	r3, [r0, #33]	@ zero_extendqisi2
 812 0004 022B     		cmp	r3, #2
 813 0006 06D0     		beq	.L90
 516:Drivers/STM32F1xx_HAL_Driver/Src/stm32f1xx_hal_dma.c ****     __HAL_UNLOCK(hdma);
 814              		.loc 1 516 0
ARM GAS  /tmp/cc6lcHVI.s 			page 33


 815 0008 0423     		movs	r3, #4
 816 000a 8363     		str	r3, [r0, #56]
 517:Drivers/STM32F1xx_HAL_Driver/Src/stm32f1xx_hal_dma.c ****     return HAL_ERROR;
 817              		.loc 1 517 0
 818 000c 0023     		movs	r3, #0
 819 000e 80F82030 		strb	r3, [r0, #32]
 518:Drivers/STM32F1xx_HAL_Driver/Src/stm32f1xx_hal_dma.c ****   }
 820              		.loc 1 518 0
 821 0012 0120     		movs	r0, #1
 822              	.LVL51:
 601:Drivers/STM32F1xx_HAL_Driver/Src/stm32f1xx_hal_dma.c **** 
 823              		.loc 1 601 0
 824 0014 7047     		bx	lr
 825              	.LVL52:
 826              	.L90:
 509:Drivers/STM32F1xx_HAL_Driver/Src/stm32f1xx_hal_dma.c ****   uint32_t temp;
 827              		.loc 1 509 0
 828 0016 2DE9F041 		push	{r4, r5, r6, r7, r8, lr}
 829              	.LCFI9:
 830              		.cfi_def_cfa_offset 24
 831              		.cfi_offset 4, -24
 832              		.cfi_offset 5, -20
 833              		.cfi_offset 6, -16
 834              		.cfi_offset 7, -12
 835              		.cfi_offset 8, -8
 836              		.cfi_offset 14, -4
 522:Drivers/STM32F1xx_HAL_Driver/Src/stm32f1xx_hal_dma.c ****   {
 837              		.loc 1 522 0
 838 001a 0368     		ldr	r3, [r0]
 839 001c 1C68     		ldr	r4, [r3]
 840 001e 14F0200F 		tst	r4, #32
 841 0022 05D0     		beq	.L92
 524:Drivers/STM32F1xx_HAL_Driver/Src/stm32f1xx_hal_dma.c ****     return HAL_ERROR;
 842              		.loc 1 524 0
 843 0024 4FF48073 		mov	r3, #256
 844 0028 8363     		str	r3, [r0, #56]
 525:Drivers/STM32F1xx_HAL_Driver/Src/stm32f1xx_hal_dma.c ****   }
 845              		.loc 1 525 0
 846 002a 0120     		movs	r0, #1
 847              	.LVL53:
 848 002c BDE8F081 		pop	{r4, r5, r6, r7, r8, pc}
 849              	.LVL54:
 850              	.L92:
 529:Drivers/STM32F1xx_HAL_Driver/Src/stm32f1xx_hal_dma.c ****   {
 851              		.loc 1 529 0
 852 0030 0029     		cmp	r1, #0
 853 0032 41D1     		bne	.L93
 532:Drivers/STM32F1xx_HAL_Driver/Src/stm32f1xx_hal_dma.c ****   }
 854              		.loc 1 532 0
 855 0034 A74C     		ldr	r4, .L286
 856 0036 A342     		cmp	r3, r4
 857 0038 3CD0     		beq	.L197
 532:Drivers/STM32F1xx_HAL_Driver/Src/stm32f1xx_hal_dma.c ****   }
 858              		.loc 1 532 0 is_stmt 0 discriminator 1
 859 003a 1434     		adds	r4, r4, #20
 860 003c A342     		cmp	r3, r4
 861 003e 37D0     		beq	.L198
ARM GAS  /tmp/cc6lcHVI.s 			page 34


 532:Drivers/STM32F1xx_HAL_Driver/Src/stm32f1xx_hal_dma.c ****   }
 862              		.loc 1 532 0 discriminator 3
 863 0040 1434     		adds	r4, r4, #20
 864 0042 A342     		cmp	r3, r4
 865 0044 31D0     		beq	.L199
 532:Drivers/STM32F1xx_HAL_Driver/Src/stm32f1xx_hal_dma.c ****   }
 866              		.loc 1 532 0 discriminator 5
 867 0046 1434     		adds	r4, r4, #20
 868 0048 A342     		cmp	r3, r4
 869 004a 2BD0     		beq	.L200
 532:Drivers/STM32F1xx_HAL_Driver/Src/stm32f1xx_hal_dma.c ****   }
 870              		.loc 1 532 0 discriminator 7
 871 004c 1434     		adds	r4, r4, #20
 872 004e A342     		cmp	r3, r4
 873 0050 25D0     		beq	.L201
 532:Drivers/STM32F1xx_HAL_Driver/Src/stm32f1xx_hal_dma.c ****   }
 874              		.loc 1 532 0 discriminator 9
 875 0052 1434     		adds	r4, r4, #20
 876 0054 A342     		cmp	r3, r4
 877 0056 1FD0     		beq	.L202
 532:Drivers/STM32F1xx_HAL_Driver/Src/stm32f1xx_hal_dma.c ****   }
 878              		.loc 1 532 0 discriminator 11
 879 0058 1434     		adds	r4, r4, #20
 880 005a A342     		cmp	r3, r4
 881 005c 19D0     		beq	.L203
 532:Drivers/STM32F1xx_HAL_Driver/Src/stm32f1xx_hal_dma.c ****   }
 882              		.loc 1 532 0 discriminator 13
 883 005e 04F56274 		add	r4, r4, #904
 884 0062 A342     		cmp	r3, r4
 885 0064 13D0     		beq	.L204
 532:Drivers/STM32F1xx_HAL_Driver/Src/stm32f1xx_hal_dma.c ****   }
 886              		.loc 1 532 0 discriminator 15
 887 0066 1434     		adds	r4, r4, #20
 888 0068 A342     		cmp	r3, r4
 889 006a 0ED0     		beq	.L205
 532:Drivers/STM32F1xx_HAL_Driver/Src/stm32f1xx_hal_dma.c ****   }
 890              		.loc 1 532 0 discriminator 17
 891 006c 1434     		adds	r4, r4, #20
 892 006e A342     		cmp	r3, r4
 893 0070 08D0     		beq	.L206
 532:Drivers/STM32F1xx_HAL_Driver/Src/stm32f1xx_hal_dma.c ****   }
 894              		.loc 1 532 0 discriminator 19
 895 0072 1434     		adds	r4, r4, #20
 896 0074 A342     		cmp	r3, r4
 897 0076 02D1     		bne	.L207
 532:Drivers/STM32F1xx_HAL_Driver/Src/stm32f1xx_hal_dma.c ****   }
 898              		.loc 1 532 0
 899 0078 4FF40056 		mov	r6, #8192
 900 007c 5DE0     		b	.L105
 901              	.L207:
 902 007e 4FF40036 		mov	r6, #131072
 903 0082 5AE0     		b	.L105
 904              	.L206:
 905 0084 4FF40076 		mov	r6, #512
 906 0088 57E0     		b	.L105
 907              	.L205:
 908 008a 2026     		movs	r6, #32
ARM GAS  /tmp/cc6lcHVI.s 			page 35


 909 008c 55E0     		b	.L105
 910              	.L204:
 911 008e 0226     		movs	r6, #2
 912 0090 53E0     		b	.L105
 913              	.L203:
 914 0092 4FF00076 		mov	r6, #33554432
 915 0096 50E0     		b	.L105
 916              	.L202:
 917 0098 4FF40016 		mov	r6, #2097152
 918 009c 4DE0     		b	.L105
 919              	.L201:
 920 009e 4FF40036 		mov	r6, #131072
 921 00a2 4AE0     		b	.L105
 922              	.L200:
 923 00a4 4FF40056 		mov	r6, #8192
 924 00a8 47E0     		b	.L105
 925              	.L199:
 926 00aa 4FF40076 		mov	r6, #512
 927 00ae 44E0     		b	.L105
 928              	.L198:
 929 00b0 2026     		movs	r6, #32
 930 00b2 42E0     		b	.L105
 931              	.L197:
 932 00b4 0226     		movs	r6, #2
 933              	.LVL55:
 934 00b6 40E0     		b	.L105
 935              	.LVL56:
 936              	.L93:
 537:Drivers/STM32F1xx_HAL_Driver/Src/stm32f1xx_hal_dma.c ****   }
 937              		.loc 1 537 0 is_stmt 1
 938 00b8 864C     		ldr	r4, .L286
 939 00ba A342     		cmp	r3, r4
 940 00bc 3CD0     		beq	.L208
 537:Drivers/STM32F1xx_HAL_Driver/Src/stm32f1xx_hal_dma.c ****   }
 941              		.loc 1 537 0 is_stmt 0 discriminator 1
 942 00be 1434     		adds	r4, r4, #20
 943 00c0 A342     		cmp	r3, r4
 944 00c2 37D0     		beq	.L209
 537:Drivers/STM32F1xx_HAL_Driver/Src/stm32f1xx_hal_dma.c ****   }
 945              		.loc 1 537 0 discriminator 3
 946 00c4 1434     		adds	r4, r4, #20
 947 00c6 A342     		cmp	r3, r4
 948 00c8 31D0     		beq	.L210
 537:Drivers/STM32F1xx_HAL_Driver/Src/stm32f1xx_hal_dma.c ****   }
 949              		.loc 1 537 0 discriminator 5
 950 00ca 1434     		adds	r4, r4, #20
 951 00cc A342     		cmp	r3, r4
 952 00ce 2BD0     		beq	.L211
 537:Drivers/STM32F1xx_HAL_Driver/Src/stm32f1xx_hal_dma.c ****   }
 953              		.loc 1 537 0 discriminator 7
 954 00d0 1434     		adds	r4, r4, #20
 955 00d2 A342     		cmp	r3, r4
 956 00d4 25D0     		beq	.L212
 537:Drivers/STM32F1xx_HAL_Driver/Src/stm32f1xx_hal_dma.c ****   }
 957              		.loc 1 537 0 discriminator 9
 958 00d6 1434     		adds	r4, r4, #20
 959 00d8 A342     		cmp	r3, r4
ARM GAS  /tmp/cc6lcHVI.s 			page 36


 960 00da 1FD0     		beq	.L213
 537:Drivers/STM32F1xx_HAL_Driver/Src/stm32f1xx_hal_dma.c ****   }
 961              		.loc 1 537 0 discriminator 11
 962 00dc 1434     		adds	r4, r4, #20
 963 00de A342     		cmp	r3, r4
 964 00e0 19D0     		beq	.L214
 537:Drivers/STM32F1xx_HAL_Driver/Src/stm32f1xx_hal_dma.c ****   }
 965              		.loc 1 537 0 discriminator 13
 966 00e2 04F56274 		add	r4, r4, #904
 967 00e6 A342     		cmp	r3, r4
 968 00e8 13D0     		beq	.L215
 537:Drivers/STM32F1xx_HAL_Driver/Src/stm32f1xx_hal_dma.c ****   }
 969              		.loc 1 537 0 discriminator 15
 970 00ea 1434     		adds	r4, r4, #20
 971 00ec A342     		cmp	r3, r4
 972 00ee 0ED0     		beq	.L216
 537:Drivers/STM32F1xx_HAL_Driver/Src/stm32f1xx_hal_dma.c ****   }
 973              		.loc 1 537 0 discriminator 17
 974 00f0 1434     		adds	r4, r4, #20
 975 00f2 A342     		cmp	r3, r4
 976 00f4 08D0     		beq	.L217
 537:Drivers/STM32F1xx_HAL_Driver/Src/stm32f1xx_hal_dma.c ****   }
 977              		.loc 1 537 0 discriminator 19
 978 00f6 1434     		adds	r4, r4, #20
 979 00f8 A342     		cmp	r3, r4
 980 00fa 02D1     		bne	.L218
 537:Drivers/STM32F1xx_HAL_Driver/Src/stm32f1xx_hal_dma.c ****   }
 981              		.loc 1 537 0
 982 00fc 4FF48046 		mov	r6, #16384
 983 0100 1BE0     		b	.L105
 984              	.L218:
 985 0102 4FF48026 		mov	r6, #262144
 986 0106 18E0     		b	.L105
 987              	.L217:
 988 0108 4FF48066 		mov	r6, #1024
 989 010c 15E0     		b	.L105
 990              	.L216:
 991 010e 4026     		movs	r6, #64
 992 0110 13E0     		b	.L105
 993              	.L215:
 994 0112 0426     		movs	r6, #4
 995 0114 11E0     		b	.L105
 996              	.L214:
 997 0116 4FF08066 		mov	r6, #67108864
 998 011a 0EE0     		b	.L105
 999              	.L213:
 1000 011c 4FF48006 		mov	r6, #4194304
 1001 0120 0BE0     		b	.L105
 1002              	.L212:
 1003 0122 4FF48026 		mov	r6, #262144
 1004 0126 08E0     		b	.L105
 1005              	.L211:
 1006 0128 4FF48046 		mov	r6, #16384
 1007 012c 05E0     		b	.L105
 1008              	.L210:
 1009 012e 4FF48066 		mov	r6, #1024
 1010 0132 02E0     		b	.L105
ARM GAS  /tmp/cc6lcHVI.s 			page 37


 1011              	.L209:
 1012 0134 4026     		movs	r6, #64
 1013 0136 00E0     		b	.L105
 1014              	.L208:
 1015 0138 0426     		movs	r6, #4
 1016              	.LVL57:
 1017              	.L105:
 1018 013a 1546     		mov	r5, r2
 1019 013c 0F46     		mov	r7, r1
 1020 013e 0446     		mov	r4, r0
 1021              	.LVL58:
 541:Drivers/STM32F1xx_HAL_Driver/Src/stm32f1xx_hal_dma.c **** 
 1022              		.loc 1 541 0 is_stmt 1
 1023 0140 FFF7FEFF 		bl	HAL_GetTick
 1024              	.LVL59:
 1025 0144 8046     		mov	r8, r0
 1026              	.LVL60:
 543:Drivers/STM32F1xx_HAL_Driver/Src/stm32f1xx_hal_dma.c ****   {
 1027              		.loc 1 543 0
 1028 0146 B9E0     		b	.L143
 1029              	.LVL61:
 1030              	.L147:
 545:Drivers/STM32F1xx_HAL_Driver/Src/stm32f1xx_hal_dma.c ****     {
 1031              		.loc 1 545 0
 1032 0148 634A     		ldr	r2, .L286+4
 1033 014a 9342     		cmp	r3, r2
 1034 014c 48D9     		bls	.L118
 545:Drivers/STM32F1xx_HAL_Driver/Src/stm32f1xx_hal_dma.c ****     {
 1035              		.loc 1 545 0 is_stmt 0 discriminator 1
 1036 014e 02F56072 		add	r2, r2, #896
 1037 0152 1268     		ldr	r2, [r2]
 1038 0154 5F49     		ldr	r1, .L286
 1039 0156 8B42     		cmp	r3, r1
 1040 0158 3CD0     		beq	.L219
 545:Drivers/STM32F1xx_HAL_Driver/Src/stm32f1xx_hal_dma.c ****     {
 1041              		.loc 1 545 0 discriminator 3
 1042 015a 1431     		adds	r1, r1, #20
 1043 015c 8B42     		cmp	r3, r1
 1044 015e 37D0     		beq	.L220
 545:Drivers/STM32F1xx_HAL_Driver/Src/stm32f1xx_hal_dma.c ****     {
 1045              		.loc 1 545 0 discriminator 5
 1046 0160 1431     		adds	r1, r1, #20
 1047 0162 8B42     		cmp	r3, r1
 1048 0164 31D0     		beq	.L221
 545:Drivers/STM32F1xx_HAL_Driver/Src/stm32f1xx_hal_dma.c ****     {
 1049              		.loc 1 545 0 discriminator 7
 1050 0166 1431     		adds	r1, r1, #20
 1051 0168 8B42     		cmp	r3, r1
 1052 016a 2BD0     		beq	.L222
 545:Drivers/STM32F1xx_HAL_Driver/Src/stm32f1xx_hal_dma.c ****     {
 1053              		.loc 1 545 0 discriminator 9
 1054 016c 1431     		adds	r1, r1, #20
 1055 016e 8B42     		cmp	r3, r1
 1056 0170 25D0     		beq	.L223
 545:Drivers/STM32F1xx_HAL_Driver/Src/stm32f1xx_hal_dma.c ****     {
 1057              		.loc 1 545 0 discriminator 11
 1058 0172 1431     		adds	r1, r1, #20
ARM GAS  /tmp/cc6lcHVI.s 			page 38


 1059 0174 8B42     		cmp	r3, r1
 1060 0176 1FD0     		beq	.L224
 545:Drivers/STM32F1xx_HAL_Driver/Src/stm32f1xx_hal_dma.c ****     {
 1061              		.loc 1 545 0 discriminator 13
 1062 0178 1431     		adds	r1, r1, #20
 1063 017a 8B42     		cmp	r3, r1
 1064 017c 19D0     		beq	.L225
 545:Drivers/STM32F1xx_HAL_Driver/Src/stm32f1xx_hal_dma.c ****     {
 1065              		.loc 1 545 0 discriminator 15
 1066 017e 01F56271 		add	r1, r1, #904
 1067 0182 8B42     		cmp	r3, r1
 1068 0184 13D0     		beq	.L226
 545:Drivers/STM32F1xx_HAL_Driver/Src/stm32f1xx_hal_dma.c ****     {
 1069              		.loc 1 545 0 discriminator 17
 1070 0186 1431     		adds	r1, r1, #20
 1071 0188 8B42     		cmp	r3, r1
 1072 018a 0ED0     		beq	.L227
 545:Drivers/STM32F1xx_HAL_Driver/Src/stm32f1xx_hal_dma.c ****     {
 1073              		.loc 1 545 0 discriminator 19
 1074 018c 1431     		adds	r1, r1, #20
 1075 018e 8B42     		cmp	r3, r1
 1076 0190 08D0     		beq	.L228
 545:Drivers/STM32F1xx_HAL_Driver/Src/stm32f1xx_hal_dma.c ****     {
 1077              		.loc 1 545 0 discriminator 21
 1078 0192 1431     		adds	r1, r1, #20
 1079 0194 8B42     		cmp	r3, r1
 1080 0196 02D1     		bne	.L229
 545:Drivers/STM32F1xx_HAL_Driver/Src/stm32f1xx_hal_dma.c ****     {
 1081              		.loc 1 545 0
 1082 0198 4FF40043 		mov	r3, #32768
 1083 019c 1BE0     		b	.L119
 1084              	.L229:
 1085 019e 4FF40023 		mov	r3, #524288
 1086 01a2 18E0     		b	.L119
 1087              	.L228:
 1088 01a4 4FF40063 		mov	r3, #2048
 1089 01a8 15E0     		b	.L119
 1090              	.L227:
 1091 01aa 8023     		movs	r3, #128
 1092 01ac 13E0     		b	.L119
 1093              	.L226:
 1094 01ae 0823     		movs	r3, #8
 1095 01b0 11E0     		b	.L119
 1096              	.L225:
 1097 01b2 4FF00063 		mov	r3, #134217728
 1098 01b6 0EE0     		b	.L119
 1099              	.L224:
 1100 01b8 4FF40003 		mov	r3, #8388608
 1101 01bc 0BE0     		b	.L119
 1102              	.L223:
 1103 01be 4FF40023 		mov	r3, #524288
 1104 01c2 08E0     		b	.L119
 1105              	.L222:
 1106 01c4 4FF40043 		mov	r3, #32768
 1107 01c8 05E0     		b	.L119
 1108              	.L221:
 1109 01ca 4FF40063 		mov	r3, #2048
ARM GAS  /tmp/cc6lcHVI.s 			page 39


 1110 01ce 02E0     		b	.L119
 1111              	.L220:
 1112 01d0 8023     		movs	r3, #128
 1113 01d2 00E0     		b	.L119
 1114              	.L219:
 1115 01d4 0823     		movs	r3, #8
 1116              	.L119:
 545:Drivers/STM32F1xx_HAL_Driver/Src/stm32f1xx_hal_dma.c ****     {
 1117              		.loc 1 545 0 discriminator 46
 1118 01d6 1A42     		tst	r2, r3
 1119 01d8 14BF     		ite	ne
 1120 01da 0123     		movne	r3, #1
 1121 01dc 0023     		moveq	r3, #0
 1122 01de 46E0     		b	.L130
 1123              	.L118:
 545:Drivers/STM32F1xx_HAL_Driver/Src/stm32f1xx_hal_dma.c ****     {
 1124              		.loc 1 545 0 discriminator 2
 1125 01e0 3E4A     		ldr	r2, .L286+8
 1126 01e2 1268     		ldr	r2, [r2]
 1127 01e4 3B49     		ldr	r1, .L286
 1128 01e6 8B42     		cmp	r3, r1
 1129 01e8 3CD0     		beq	.L230
 545:Drivers/STM32F1xx_HAL_Driver/Src/stm32f1xx_hal_dma.c ****     {
 1130              		.loc 1 545 0 discriminator 48
 1131 01ea 1431     		adds	r1, r1, #20
 1132 01ec 8B42     		cmp	r3, r1
 1133 01ee 37D0     		beq	.L231
 545:Drivers/STM32F1xx_HAL_Driver/Src/stm32f1xx_hal_dma.c ****     {
 1134              		.loc 1 545 0 discriminator 50
 1135 01f0 1431     		adds	r1, r1, #20
 1136 01f2 8B42     		cmp	r3, r1
 1137 01f4 31D0     		beq	.L232
 545:Drivers/STM32F1xx_HAL_Driver/Src/stm32f1xx_hal_dma.c ****     {
 1138              		.loc 1 545 0 discriminator 52
 1139 01f6 1431     		adds	r1, r1, #20
 1140 01f8 8B42     		cmp	r3, r1
 1141 01fa 2BD0     		beq	.L233
 545:Drivers/STM32F1xx_HAL_Driver/Src/stm32f1xx_hal_dma.c ****     {
 1142              		.loc 1 545 0 discriminator 54
 1143 01fc 1431     		adds	r1, r1, #20
 1144 01fe 8B42     		cmp	r3, r1
 1145 0200 25D0     		beq	.L234
 545:Drivers/STM32F1xx_HAL_Driver/Src/stm32f1xx_hal_dma.c ****     {
 1146              		.loc 1 545 0 discriminator 56
 1147 0202 1431     		adds	r1, r1, #20
 1148 0204 8B42     		cmp	r3, r1
 1149 0206 1FD0     		beq	.L235
 545:Drivers/STM32F1xx_HAL_Driver/Src/stm32f1xx_hal_dma.c ****     {
 1150              		.loc 1 545 0 discriminator 58
 1151 0208 1431     		adds	r1, r1, #20
 1152 020a 8B42     		cmp	r3, r1
 1153 020c 19D0     		beq	.L236
 545:Drivers/STM32F1xx_HAL_Driver/Src/stm32f1xx_hal_dma.c ****     {
 1154              		.loc 1 545 0 discriminator 60
 1155 020e 01F56271 		add	r1, r1, #904
 1156 0212 8B42     		cmp	r3, r1
 1157 0214 13D0     		beq	.L237
ARM GAS  /tmp/cc6lcHVI.s 			page 40


 545:Drivers/STM32F1xx_HAL_Driver/Src/stm32f1xx_hal_dma.c ****     {
 1158              		.loc 1 545 0 discriminator 62
 1159 0216 1431     		adds	r1, r1, #20
 1160 0218 8B42     		cmp	r3, r1
 1161 021a 0ED0     		beq	.L238
 545:Drivers/STM32F1xx_HAL_Driver/Src/stm32f1xx_hal_dma.c ****     {
 1162              		.loc 1 545 0 discriminator 64
 1163 021c 1431     		adds	r1, r1, #20
 1164 021e 8B42     		cmp	r3, r1
 1165 0220 08D0     		beq	.L239
 545:Drivers/STM32F1xx_HAL_Driver/Src/stm32f1xx_hal_dma.c ****     {
 1166              		.loc 1 545 0 discriminator 66
 1167 0222 1431     		adds	r1, r1, #20
 1168 0224 8B42     		cmp	r3, r1
 1169 0226 02D1     		bne	.L240
 545:Drivers/STM32F1xx_HAL_Driver/Src/stm32f1xx_hal_dma.c ****     {
 1170              		.loc 1 545 0
 1171 0228 4FF40043 		mov	r3, #32768
 1172 022c 1BE0     		b	.L131
 1173              	.L240:
 1174 022e 4FF40023 		mov	r3, #524288
 1175 0232 18E0     		b	.L131
 1176              	.L239:
 1177 0234 4FF40063 		mov	r3, #2048
 1178 0238 15E0     		b	.L131
 1179              	.L238:
 1180 023a 8023     		movs	r3, #128
 1181 023c 13E0     		b	.L131
 1182              	.L237:
 1183 023e 0823     		movs	r3, #8
 1184 0240 11E0     		b	.L131
 1185              	.L236:
 1186 0242 4FF00063 		mov	r3, #134217728
 1187 0246 0EE0     		b	.L131
 1188              	.L235:
 1189 0248 4FF40003 		mov	r3, #8388608
 1190 024c 0BE0     		b	.L131
 1191              	.L234:
 1192 024e 4FF40023 		mov	r3, #524288
 1193 0252 08E0     		b	.L131
 1194              	.L233:
 1195 0254 4FF40043 		mov	r3, #32768
 1196 0258 05E0     		b	.L131
 1197              	.L232:
 1198 025a 4FF40063 		mov	r3, #2048
 1199 025e 02E0     		b	.L131
 1200              	.L231:
 1201 0260 8023     		movs	r3, #128
 1202 0262 00E0     		b	.L131
 1203              	.L230:
 1204 0264 0823     		movs	r3, #8
 1205              	.L131:
 545:Drivers/STM32F1xx_HAL_Driver/Src/stm32f1xx_hal_dma.c ****     {
 1206              		.loc 1 545 0 discriminator 91
 1207 0266 1A42     		tst	r2, r3
 1208 0268 14BF     		ite	ne
 1209 026a 0123     		movne	r3, #1
ARM GAS  /tmp/cc6lcHVI.s 			page 41


 1210 026c 0023     		moveq	r3, #0
 1211              	.L130:
 545:Drivers/STM32F1xx_HAL_Driver/Src/stm32f1xx_hal_dma.c ****     {
 1212              		.loc 1 545 0 discriminator 92
 1213 026e 7BB1     		cbz	r3, .L142
 550:Drivers/STM32F1xx_HAL_Driver/Src/stm32f1xx_hal_dma.c **** 
 1214              		.loc 1 550 0 is_stmt 1
 1215 0270 E36B     		ldr	r3, [r4, #60]
 1216 0272 226C     		ldr	r2, [r4, #64]
 1217 0274 0120     		movs	r0, #1
 1218 0276 00FA02F2 		lsl	r2, r0, r2
 1219 027a 5A60     		str	r2, [r3, #4]
 553:Drivers/STM32F1xx_HAL_Driver/Src/stm32f1xx_hal_dma.c **** 
 1220              		.loc 1 553 0
 1221 027c A36B     		ldr	r3, [r4, #56]
 1222 027e 0343     		orrs	r3, r3, r0
 1223 0280 A363     		str	r3, [r4, #56]
 556:Drivers/STM32F1xx_HAL_Driver/Src/stm32f1xx_hal_dma.c **** 
 1224              		.loc 1 556 0
 1225 0282 84F82100 		strb	r0, [r4, #33]
 559:Drivers/STM32F1xx_HAL_Driver/Src/stm32f1xx_hal_dma.c **** 
 1226              		.loc 1 559 0
 1227 0286 0023     		movs	r3, #0
 1228 0288 84F82030 		strb	r3, [r4, #32]
 561:Drivers/STM32F1xx_HAL_Driver/Src/stm32f1xx_hal_dma.c ****     }
 1229              		.loc 1 561 0
 1230 028c BDE8F081 		pop	{r4, r5, r6, r7, r8, pc}
 1231              	.LVL62:
 1232              	.L142:
 564:Drivers/STM32F1xx_HAL_Driver/Src/stm32f1xx_hal_dma.c ****     {
 1233              		.loc 1 564 0
 1234 0290 B5F1FF3F 		cmp	r5, #-1
 1235 0294 12D0     		beq	.L143
 566:Drivers/STM32F1xx_HAL_Driver/Src/stm32f1xx_hal_dma.c ****       {
 1236              		.loc 1 566 0
 1237 0296 2DB1     		cbz	r5, .L144
 566:Drivers/STM32F1xx_HAL_Driver/Src/stm32f1xx_hal_dma.c ****       {
 1238              		.loc 1 566 0 is_stmt 0 discriminator 1
 1239 0298 FFF7FEFF 		bl	HAL_GetTick
 1240              	.LVL63:
 1241 029c C8EB0000 		rsb	r0, r8, r0
 1242 02a0 A842     		cmp	r0, r5
 1243 02a2 0BD9     		bls	.L143
 1244              	.L144:
 569:Drivers/STM32F1xx_HAL_Driver/Src/stm32f1xx_hal_dma.c **** 
 1245              		.loc 1 569 0 is_stmt 1
 1246 02a4 A36B     		ldr	r3, [r4, #56]
 1247 02a6 43F02003 		orr	r3, r3, #32
 1248 02aa A363     		str	r3, [r4, #56]
 572:Drivers/STM32F1xx_HAL_Driver/Src/stm32f1xx_hal_dma.c **** 
 1249              		.loc 1 572 0
 1250 02ac 0120     		movs	r0, #1
 1251 02ae 84F82100 		strb	r0, [r4, #33]
 575:Drivers/STM32F1xx_HAL_Driver/Src/stm32f1xx_hal_dma.c **** 
 1252              		.loc 1 575 0
 1253 02b2 0023     		movs	r3, #0
 1254 02b4 84F82030 		strb	r3, [r4, #32]
ARM GAS  /tmp/cc6lcHVI.s 			page 42


 577:Drivers/STM32F1xx_HAL_Driver/Src/stm32f1xx_hal_dma.c ****       }
 1255              		.loc 1 577 0
 1256 02b8 BDE8F081 		pop	{r4, r5, r6, r7, r8, pc}
 1257              	.LVL64:
 1258              	.L143:
 543:Drivers/STM32F1xx_HAL_Driver/Src/stm32f1xx_hal_dma.c ****   {
 1259              		.loc 1 543 0
 1260 02bc 2368     		ldr	r3, [r4]
 1261 02be 0648     		ldr	r0, .L286+4
 1262 02c0 8342     		cmp	r3, r0
 1263 02c2 0FD9     		bls	.L145
 543:Drivers/STM32F1xx_HAL_Driver/Src/stm32f1xx_hal_dma.c ****   {
 1264              		.loc 1 543 0 is_stmt 0 discriminator 1
 1265 02c4 064A     		ldr	r2, .L286+12
 1266 02c6 1268     		ldr	r2, [r2]
 1267 02c8 3242     		tst	r2, r6
 1268 02ca 0CBF     		ite	eq
 1269 02cc 0120     		moveq	r0, #1
 1270 02ce 0020     		movne	r0, #0
 1271 02d0 0EE0     		b	.L146
 1272              	.L287:
 1273 02d2 00BF     		.align	2
 1274              	.L286:
 1275 02d4 08000240 		.word	1073872904
 1276 02d8 80000240 		.word	1073873024
 1277 02dc 00000240 		.word	1073872896
 1278 02e0 00040240 		.word	1073873920
 1279              	.L145:
 543:Drivers/STM32F1xx_HAL_Driver/Src/stm32f1xx_hal_dma.c ****   {
 1280              		.loc 1 543 0 discriminator 2
 1281 02e4 944A     		ldr	r2, .L288
 1282 02e6 1268     		ldr	r2, [r2]
 1283 02e8 3242     		tst	r2, r6
 1284 02ea 0CBF     		ite	eq
 1285 02ec 0120     		moveq	r0, #1
 1286 02ee 0020     		movne	r0, #0
 1287              	.L146:
 543:Drivers/STM32F1xx_HAL_Driver/Src/stm32f1xx_hal_dma.c ****   {
 1288              		.loc 1 543 0 discriminator 4
 1289 02f0 0028     		cmp	r0, #0
 1290 02f2 7FF429AF 		bne	.L147
 582:Drivers/STM32F1xx_HAL_Driver/Src/stm32f1xx_hal_dma.c ****   {
 1291              		.loc 1 582 0 is_stmt 1
 1292 02f6 002F     		cmp	r7, #0
 1293 02f8 40F08E80 		bne	.L148
 585:Drivers/STM32F1xx_HAL_Driver/Src/stm32f1xx_hal_dma.c **** 
 1294              		.loc 1 585 0
 1295 02fc 8F4A     		ldr	r2, .L288+4
 1296 02fe 9342     		cmp	r3, r2
 1297 0300 43D9     		bls	.L149
 585:Drivers/STM32F1xx_HAL_Driver/Src/stm32f1xx_hal_dma.c **** 
 1298              		.loc 1 585 0 is_stmt 0 discriminator 1
 1299 0302 783A     		subs	r2, r2, #120
 1300 0304 9342     		cmp	r3, r2
 1301 0306 3CD0     		beq	.L241
 585:Drivers/STM32F1xx_HAL_Driver/Src/stm32f1xx_hal_dma.c **** 
 1302              		.loc 1 585 0 discriminator 3
ARM GAS  /tmp/cc6lcHVI.s 			page 43


 1303 0308 1432     		adds	r2, r2, #20
 1304 030a 9342     		cmp	r3, r2
 1305 030c 37D0     		beq	.L242
 585:Drivers/STM32F1xx_HAL_Driver/Src/stm32f1xx_hal_dma.c **** 
 1306              		.loc 1 585 0 discriminator 5
 1307 030e 1432     		adds	r2, r2, #20
 1308 0310 9342     		cmp	r3, r2
 1309 0312 31D0     		beq	.L243
 585:Drivers/STM32F1xx_HAL_Driver/Src/stm32f1xx_hal_dma.c **** 
 1310              		.loc 1 585 0 discriminator 7
 1311 0314 1432     		adds	r2, r2, #20
 1312 0316 9342     		cmp	r3, r2
 1313 0318 2BD0     		beq	.L244
 585:Drivers/STM32F1xx_HAL_Driver/Src/stm32f1xx_hal_dma.c **** 
 1314              		.loc 1 585 0 discriminator 9
 1315 031a 1432     		adds	r2, r2, #20
 1316 031c 9342     		cmp	r3, r2
 1317 031e 25D0     		beq	.L245
 585:Drivers/STM32F1xx_HAL_Driver/Src/stm32f1xx_hal_dma.c **** 
 1318              		.loc 1 585 0 discriminator 11
 1319 0320 1432     		adds	r2, r2, #20
 1320 0322 9342     		cmp	r3, r2
 1321 0324 1FD0     		beq	.L246
 585:Drivers/STM32F1xx_HAL_Driver/Src/stm32f1xx_hal_dma.c **** 
 1322              		.loc 1 585 0 discriminator 13
 1323 0326 1432     		adds	r2, r2, #20
 1324 0328 9342     		cmp	r3, r2
 1325 032a 19D0     		beq	.L247
 585:Drivers/STM32F1xx_HAL_Driver/Src/stm32f1xx_hal_dma.c **** 
 1326              		.loc 1 585 0 discriminator 15
 1327 032c 02F56272 		add	r2, r2, #904
 1328 0330 9342     		cmp	r3, r2
 1329 0332 13D0     		beq	.L248
 585:Drivers/STM32F1xx_HAL_Driver/Src/stm32f1xx_hal_dma.c **** 
 1330              		.loc 1 585 0 discriminator 17
 1331 0334 1432     		adds	r2, r2, #20
 1332 0336 9342     		cmp	r3, r2
 1333 0338 0ED0     		beq	.L249
 585:Drivers/STM32F1xx_HAL_Driver/Src/stm32f1xx_hal_dma.c **** 
 1334              		.loc 1 585 0 discriminator 19
 1335 033a 1432     		adds	r2, r2, #20
 1336 033c 9342     		cmp	r3, r2
 1337 033e 08D0     		beq	.L250
 585:Drivers/STM32F1xx_HAL_Driver/Src/stm32f1xx_hal_dma.c **** 
 1338              		.loc 1 585 0 discriminator 21
 1339 0340 1432     		adds	r2, r2, #20
 1340 0342 9342     		cmp	r3, r2
 1341 0344 02D1     		bne	.L251
 585:Drivers/STM32F1xx_HAL_Driver/Src/stm32f1xx_hal_dma.c **** 
 1342              		.loc 1 585 0
 1343 0346 4FF40053 		mov	r3, #8192
 1344 034a 1BE0     		b	.L150
 1345              	.L251:
 1346 034c 4FF40033 		mov	r3, #131072
 1347 0350 18E0     		b	.L150
 1348              	.L250:
 1349 0352 4FF40073 		mov	r3, #512
ARM GAS  /tmp/cc6lcHVI.s 			page 44


 1350 0356 15E0     		b	.L150
 1351              	.L249:
 1352 0358 2023     		movs	r3, #32
 1353 035a 13E0     		b	.L150
 1354              	.L248:
 1355 035c 0223     		movs	r3, #2
 1356 035e 11E0     		b	.L150
 1357              	.L247:
 1358 0360 4FF00073 		mov	r3, #33554432
 1359 0364 0EE0     		b	.L150
 1360              	.L246:
 1361 0366 4FF40013 		mov	r3, #2097152
 1362 036a 0BE0     		b	.L150
 1363              	.L245:
 1364 036c 4FF40033 		mov	r3, #131072
 1365 0370 08E0     		b	.L150
 1366              	.L244:
 1367 0372 4FF40053 		mov	r3, #8192
 1368 0376 05E0     		b	.L150
 1369              	.L243:
 1370 0378 4FF40073 		mov	r3, #512
 1371 037c 02E0     		b	.L150
 1372              	.L242:
 1373 037e 2023     		movs	r3, #32
 1374 0380 00E0     		b	.L150
 1375              	.L241:
 1376 0382 0223     		movs	r3, #2
 1377              	.L150:
 585:Drivers/STM32F1xx_HAL_Driver/Src/stm32f1xx_hal_dma.c **** 
 1378              		.loc 1 585 0 discriminator 46
 1379 0384 6E4A     		ldr	r2, .L288+8
 1380 0386 5360     		str	r3, [r2, #4]
 1381 0388 42E0     		b	.L161
 1382              	.L149:
 585:Drivers/STM32F1xx_HAL_Driver/Src/stm32f1xx_hal_dma.c **** 
 1383              		.loc 1 585 0 discriminator 2
 1384 038a 6E4A     		ldr	r2, .L288+12
 1385 038c 9342     		cmp	r3, r2
 1386 038e 3CD0     		beq	.L252
 585:Drivers/STM32F1xx_HAL_Driver/Src/stm32f1xx_hal_dma.c **** 
 1387              		.loc 1 585 0 discriminator 47
 1388 0390 1432     		adds	r2, r2, #20
 1389 0392 9342     		cmp	r3, r2
 1390 0394 37D0     		beq	.L253
 585:Drivers/STM32F1xx_HAL_Driver/Src/stm32f1xx_hal_dma.c **** 
 1391              		.loc 1 585 0 discriminator 49
 1392 0396 1432     		adds	r2, r2, #20
 1393 0398 9342     		cmp	r3, r2
 1394 039a 31D0     		beq	.L254
 585:Drivers/STM32F1xx_HAL_Driver/Src/stm32f1xx_hal_dma.c **** 
 1395              		.loc 1 585 0 discriminator 51
 1396 039c 1432     		adds	r2, r2, #20
 1397 039e 9342     		cmp	r3, r2
 1398 03a0 2BD0     		beq	.L255
 585:Drivers/STM32F1xx_HAL_Driver/Src/stm32f1xx_hal_dma.c **** 
 1399              		.loc 1 585 0 discriminator 53
 1400 03a2 1432     		adds	r2, r2, #20
ARM GAS  /tmp/cc6lcHVI.s 			page 45


 1401 03a4 9342     		cmp	r3, r2
 1402 03a6 25D0     		beq	.L256
 585:Drivers/STM32F1xx_HAL_Driver/Src/stm32f1xx_hal_dma.c **** 
 1403              		.loc 1 585 0 discriminator 55
 1404 03a8 1432     		adds	r2, r2, #20
 1405 03aa 9342     		cmp	r3, r2
 1406 03ac 1FD0     		beq	.L257
 585:Drivers/STM32F1xx_HAL_Driver/Src/stm32f1xx_hal_dma.c **** 
 1407              		.loc 1 585 0 discriminator 57
 1408 03ae 1432     		adds	r2, r2, #20
 1409 03b0 9342     		cmp	r3, r2
 1410 03b2 19D0     		beq	.L258
 585:Drivers/STM32F1xx_HAL_Driver/Src/stm32f1xx_hal_dma.c **** 
 1411              		.loc 1 585 0 discriminator 59
 1412 03b4 02F56272 		add	r2, r2, #904
 1413 03b8 9342     		cmp	r3, r2
 1414 03ba 13D0     		beq	.L259
 585:Drivers/STM32F1xx_HAL_Driver/Src/stm32f1xx_hal_dma.c **** 
 1415              		.loc 1 585 0 discriminator 61
 1416 03bc 1432     		adds	r2, r2, #20
 1417 03be 9342     		cmp	r3, r2
 1418 03c0 0ED0     		beq	.L260
 585:Drivers/STM32F1xx_HAL_Driver/Src/stm32f1xx_hal_dma.c **** 
 1419              		.loc 1 585 0 discriminator 63
 1420 03c2 1432     		adds	r2, r2, #20
 1421 03c4 9342     		cmp	r3, r2
 1422 03c6 08D0     		beq	.L261
 585:Drivers/STM32F1xx_HAL_Driver/Src/stm32f1xx_hal_dma.c **** 
 1423              		.loc 1 585 0 discriminator 65
 1424 03c8 1432     		adds	r2, r2, #20
 1425 03ca 9342     		cmp	r3, r2
 1426 03cc 02D1     		bne	.L262
 585:Drivers/STM32F1xx_HAL_Driver/Src/stm32f1xx_hal_dma.c **** 
 1427              		.loc 1 585 0
 1428 03ce 4FF40053 		mov	r3, #8192
 1429 03d2 1BE0     		b	.L162
 1430              	.L262:
 1431 03d4 4FF40033 		mov	r3, #131072
 1432 03d8 18E0     		b	.L162
 1433              	.L261:
 1434 03da 4FF40073 		mov	r3, #512
 1435 03de 15E0     		b	.L162
 1436              	.L260:
 1437 03e0 2023     		movs	r3, #32
 1438 03e2 13E0     		b	.L162
 1439              	.L259:
 1440 03e4 0223     		movs	r3, #2
 1441 03e6 11E0     		b	.L162
 1442              	.L258:
 1443 03e8 4FF00073 		mov	r3, #33554432
 1444 03ec 0EE0     		b	.L162
 1445              	.L257:
 1446 03ee 4FF40013 		mov	r3, #2097152
 1447 03f2 0BE0     		b	.L162
 1448              	.L256:
 1449 03f4 4FF40033 		mov	r3, #131072
 1450 03f8 08E0     		b	.L162
ARM GAS  /tmp/cc6lcHVI.s 			page 46


 1451              	.L255:
 1452 03fa 4FF40053 		mov	r3, #8192
 1453 03fe 05E0     		b	.L162
 1454              	.L254:
 1455 0400 4FF40073 		mov	r3, #512
 1456 0404 02E0     		b	.L162
 1457              	.L253:
 1458 0406 2023     		movs	r3, #32
 1459 0408 00E0     		b	.L162
 1460              	.L252:
 1461 040a 0223     		movs	r3, #2
 1462              	.L162:
 585:Drivers/STM32F1xx_HAL_Driver/Src/stm32f1xx_hal_dma.c **** 
 1463              		.loc 1 585 0 discriminator 90
 1464 040c 4A4A     		ldr	r2, .L288
 1465 040e 5360     		str	r3, [r2, #4]
 1466              	.L161:
 589:Drivers/STM32F1xx_HAL_Driver/Src/stm32f1xx_hal_dma.c ****   }
 1467              		.loc 1 589 0 is_stmt 1
 1468 0410 0123     		movs	r3, #1
 1469 0412 84F82130 		strb	r3, [r4, #33]
 1470 0416 89E0     		b	.L173
 1471              	.L148:
 594:Drivers/STM32F1xx_HAL_Driver/Src/stm32f1xx_hal_dma.c ****   }
 1472              		.loc 1 594 0
 1473 0418 484A     		ldr	r2, .L288+4
 1474 041a 9342     		cmp	r3, r2
 1475 041c 43D9     		bls	.L174
 594:Drivers/STM32F1xx_HAL_Driver/Src/stm32f1xx_hal_dma.c ****   }
 1476              		.loc 1 594 0 is_stmt 0 discriminator 1
 1477 041e 783A     		subs	r2, r2, #120
 1478 0420 9342     		cmp	r3, r2
 1479 0422 3CD0     		beq	.L263
 594:Drivers/STM32F1xx_HAL_Driver/Src/stm32f1xx_hal_dma.c ****   }
 1480              		.loc 1 594 0 discriminator 3
 1481 0424 1432     		adds	r2, r2, #20
 1482 0426 9342     		cmp	r3, r2
 1483 0428 37D0     		beq	.L264
 594:Drivers/STM32F1xx_HAL_Driver/Src/stm32f1xx_hal_dma.c ****   }
 1484              		.loc 1 594 0 discriminator 5
 1485 042a 1432     		adds	r2, r2, #20
 1486 042c 9342     		cmp	r3, r2
 1487 042e 31D0     		beq	.L265
 594:Drivers/STM32F1xx_HAL_Driver/Src/stm32f1xx_hal_dma.c ****   }
 1488              		.loc 1 594 0 discriminator 7
 1489 0430 1432     		adds	r2, r2, #20
 1490 0432 9342     		cmp	r3, r2
 1491 0434 2BD0     		beq	.L266
 594:Drivers/STM32F1xx_HAL_Driver/Src/stm32f1xx_hal_dma.c ****   }
 1492              		.loc 1 594 0 discriminator 9
 1493 0436 1432     		adds	r2, r2, #20
 1494 0438 9342     		cmp	r3, r2
 1495 043a 25D0     		beq	.L267
 594:Drivers/STM32F1xx_HAL_Driver/Src/stm32f1xx_hal_dma.c ****   }
 1496              		.loc 1 594 0 discriminator 11
 1497 043c 1432     		adds	r2, r2, #20
 1498 043e 9342     		cmp	r3, r2
ARM GAS  /tmp/cc6lcHVI.s 			page 47


 1499 0440 1FD0     		beq	.L268
 594:Drivers/STM32F1xx_HAL_Driver/Src/stm32f1xx_hal_dma.c ****   }
 1500              		.loc 1 594 0 discriminator 13
 1501 0442 1432     		adds	r2, r2, #20
 1502 0444 9342     		cmp	r3, r2
 1503 0446 19D0     		beq	.L269
 594:Drivers/STM32F1xx_HAL_Driver/Src/stm32f1xx_hal_dma.c ****   }
 1504              		.loc 1 594 0 discriminator 15
 1505 0448 02F56272 		add	r2, r2, #904
 1506 044c 9342     		cmp	r3, r2
 1507 044e 13D0     		beq	.L270
 594:Drivers/STM32F1xx_HAL_Driver/Src/stm32f1xx_hal_dma.c ****   }
 1508              		.loc 1 594 0 discriminator 17
 1509 0450 1432     		adds	r2, r2, #20
 1510 0452 9342     		cmp	r3, r2
 1511 0454 0ED0     		beq	.L271
 594:Drivers/STM32F1xx_HAL_Driver/Src/stm32f1xx_hal_dma.c ****   }
 1512              		.loc 1 594 0 discriminator 19
 1513 0456 1432     		adds	r2, r2, #20
 1514 0458 9342     		cmp	r3, r2
 1515 045a 08D0     		beq	.L272
 594:Drivers/STM32F1xx_HAL_Driver/Src/stm32f1xx_hal_dma.c ****   }
 1516              		.loc 1 594 0 discriminator 21
 1517 045c 1432     		adds	r2, r2, #20
 1518 045e 9342     		cmp	r3, r2
 1519 0460 02D1     		bne	.L273
 594:Drivers/STM32F1xx_HAL_Driver/Src/stm32f1xx_hal_dma.c ****   }
 1520              		.loc 1 594 0
 1521 0462 4FF48043 		mov	r3, #16384
 1522 0466 1BE0     		b	.L175
 1523              	.L273:
 1524 0468 4FF48023 		mov	r3, #262144
 1525 046c 18E0     		b	.L175
 1526              	.L272:
 1527 046e 4FF48063 		mov	r3, #1024
 1528 0472 15E0     		b	.L175
 1529              	.L271:
 1530 0474 4023     		movs	r3, #64
 1531 0476 13E0     		b	.L175
 1532              	.L270:
 1533 0478 0423     		movs	r3, #4
 1534 047a 11E0     		b	.L175
 1535              	.L269:
 1536 047c 4FF08063 		mov	r3, #67108864
 1537 0480 0EE0     		b	.L175
 1538              	.L268:
 1539 0482 4FF48003 		mov	r3, #4194304
 1540 0486 0BE0     		b	.L175
 1541              	.L267:
 1542 0488 4FF48023 		mov	r3, #262144
 1543 048c 08E0     		b	.L175
 1544              	.L266:
 1545 048e 4FF48043 		mov	r3, #16384
 1546 0492 05E0     		b	.L175
 1547              	.L265:
 1548 0494 4FF48063 		mov	r3, #1024
 1549 0498 02E0     		b	.L175
ARM GAS  /tmp/cc6lcHVI.s 			page 48


 1550              	.L264:
 1551 049a 4023     		movs	r3, #64
 1552 049c 00E0     		b	.L175
 1553              	.L263:
 1554 049e 0423     		movs	r3, #4
 1555              	.L175:
 594:Drivers/STM32F1xx_HAL_Driver/Src/stm32f1xx_hal_dma.c ****   }
 1556              		.loc 1 594 0 discriminator 46
 1557 04a0 274A     		ldr	r2, .L288+8
 1558 04a2 5360     		str	r3, [r2, #4]
 1559 04a4 42E0     		b	.L173
 1560              	.L174:
 594:Drivers/STM32F1xx_HAL_Driver/Src/stm32f1xx_hal_dma.c ****   }
 1561              		.loc 1 594 0 discriminator 2
 1562 04a6 274A     		ldr	r2, .L288+12
 1563 04a8 9342     		cmp	r3, r2
 1564 04aa 3CD0     		beq	.L274
 594:Drivers/STM32F1xx_HAL_Driver/Src/stm32f1xx_hal_dma.c ****   }
 1565              		.loc 1 594 0 discriminator 47
 1566 04ac 1432     		adds	r2, r2, #20
 1567 04ae 9342     		cmp	r3, r2
 1568 04b0 37D0     		beq	.L275
 594:Drivers/STM32F1xx_HAL_Driver/Src/stm32f1xx_hal_dma.c ****   }
 1569              		.loc 1 594 0 discriminator 49
 1570 04b2 1432     		adds	r2, r2, #20
 1571 04b4 9342     		cmp	r3, r2
 1572 04b6 31D0     		beq	.L276
 594:Drivers/STM32F1xx_HAL_Driver/Src/stm32f1xx_hal_dma.c ****   }
 1573              		.loc 1 594 0 discriminator 51
 1574 04b8 1432     		adds	r2, r2, #20
 1575 04ba 9342     		cmp	r3, r2
 1576 04bc 2BD0     		beq	.L277
 594:Drivers/STM32F1xx_HAL_Driver/Src/stm32f1xx_hal_dma.c ****   }
 1577              		.loc 1 594 0 discriminator 53
 1578 04be 1432     		adds	r2, r2, #20
 1579 04c0 9342     		cmp	r3, r2
 1580 04c2 25D0     		beq	.L278
 594:Drivers/STM32F1xx_HAL_Driver/Src/stm32f1xx_hal_dma.c ****   }
 1581              		.loc 1 594 0 discriminator 55
 1582 04c4 1432     		adds	r2, r2, #20
 1583 04c6 9342     		cmp	r3, r2
 1584 04c8 1FD0     		beq	.L279
 594:Drivers/STM32F1xx_HAL_Driver/Src/stm32f1xx_hal_dma.c ****   }
 1585              		.loc 1 594 0 discriminator 57
 1586 04ca 1432     		adds	r2, r2, #20
 1587 04cc 9342     		cmp	r3, r2
 1588 04ce 19D0     		beq	.L280
 594:Drivers/STM32F1xx_HAL_Driver/Src/stm32f1xx_hal_dma.c ****   }
 1589              		.loc 1 594 0 discriminator 59
 1590 04d0 02F56272 		add	r2, r2, #904
 1591 04d4 9342     		cmp	r3, r2
 1592 04d6 13D0     		beq	.L281
 594:Drivers/STM32F1xx_HAL_Driver/Src/stm32f1xx_hal_dma.c ****   }
 1593              		.loc 1 594 0 discriminator 61
 1594 04d8 1432     		adds	r2, r2, #20
 1595 04da 9342     		cmp	r3, r2
 1596 04dc 0ED0     		beq	.L282
ARM GAS  /tmp/cc6lcHVI.s 			page 49


 594:Drivers/STM32F1xx_HAL_Driver/Src/stm32f1xx_hal_dma.c ****   }
 1597              		.loc 1 594 0 discriminator 63
 1598 04de 1432     		adds	r2, r2, #20
 1599 04e0 9342     		cmp	r3, r2
 1600 04e2 08D0     		beq	.L283
 594:Drivers/STM32F1xx_HAL_Driver/Src/stm32f1xx_hal_dma.c ****   }
 1601              		.loc 1 594 0 discriminator 65
 1602 04e4 1432     		adds	r2, r2, #20
 1603 04e6 9342     		cmp	r3, r2
 1604 04e8 02D1     		bne	.L284
 594:Drivers/STM32F1xx_HAL_Driver/Src/stm32f1xx_hal_dma.c ****   }
 1605              		.loc 1 594 0
 1606 04ea 4FF48043 		mov	r3, #16384
 1607 04ee 1BE0     		b	.L186
 1608              	.L284:
 1609 04f0 4FF48023 		mov	r3, #262144
 1610 04f4 18E0     		b	.L186
 1611              	.L283:
 1612 04f6 4FF48063 		mov	r3, #1024
 1613 04fa 15E0     		b	.L186
 1614              	.L282:
 1615 04fc 4023     		movs	r3, #64
 1616 04fe 13E0     		b	.L186
 1617              	.L281:
 1618 0500 0423     		movs	r3, #4
 1619 0502 11E0     		b	.L186
 1620              	.L280:
 1621 0504 4FF08063 		mov	r3, #67108864
 1622 0508 0EE0     		b	.L186
 1623              	.L279:
 1624 050a 4FF48003 		mov	r3, #4194304
 1625 050e 0BE0     		b	.L186
 1626              	.L278:
 1627 0510 4FF48023 		mov	r3, #262144
 1628 0514 08E0     		b	.L186
 1629              	.L277:
 1630 0516 4FF48043 		mov	r3, #16384
 1631 051a 05E0     		b	.L186
 1632              	.L276:
 1633 051c 4FF48063 		mov	r3, #1024
 1634 0520 02E0     		b	.L186
 1635              	.L275:
 1636 0522 4023     		movs	r3, #64
 1637 0524 00E0     		b	.L186
 1638              	.L274:
 1639 0526 0423     		movs	r3, #4
 1640              	.L186:
 594:Drivers/STM32F1xx_HAL_Driver/Src/stm32f1xx_hal_dma.c ****   }
 1641              		.loc 1 594 0 discriminator 90
 1642 0528 034A     		ldr	r2, .L288
 1643 052a 5360     		str	r3, [r2, #4]
 1644              	.L173:
 598:Drivers/STM32F1xx_HAL_Driver/Src/stm32f1xx_hal_dma.c **** 
 1645              		.loc 1 598 0 is_stmt 1
 1646 052c 0020     		movs	r0, #0
 1647 052e 84F82000 		strb	r0, [r4, #32]
 601:Drivers/STM32F1xx_HAL_Driver/Src/stm32f1xx_hal_dma.c **** 
ARM GAS  /tmp/cc6lcHVI.s 			page 50


 1648              		.loc 1 601 0
 1649 0532 BDE8F081 		pop	{r4, r5, r6, r7, r8, pc}
 1650              	.LVL65:
 1651              	.L289:
 1652 0536 00BF     		.align	2
 1653              	.L288:
 1654 0538 00000240 		.word	1073872896
 1655 053c 80000240 		.word	1073873024
 1656 0540 00040240 		.word	1073873920
 1657 0544 08000240 		.word	1073872904
 1658              		.cfi_endproc
 1659              	.LFE69:
 1661              		.section	.text.HAL_DMA_IRQHandler,"ax",%progbits
 1662              		.align	2
 1663              		.global	HAL_DMA_IRQHandler
 1664              		.thumb
 1665              		.thumb_func
 1667              	HAL_DMA_IRQHandler:
 1668              	.LFB70:
 610:Drivers/STM32F1xx_HAL_Driver/Src/stm32f1xx_hal_dma.c ****   uint32_t flag_it = hdma->DmaBaseAddress->ISR;
 1669              		.loc 1 610 0
 1670              		.cfi_startproc
 1671              		@ args = 0, pretend = 0, frame = 0
 1672              		@ frame_needed = 0, uses_anonymous_args = 0
 1673              	.LVL66:
 1674 0000 38B5     		push	{r3, r4, r5, lr}
 1675              	.LCFI10:
 1676              		.cfi_def_cfa_offset 16
 1677              		.cfi_offset 3, -16
 1678              		.cfi_offset 4, -12
 1679              		.cfi_offset 5, -8
 1680              		.cfi_offset 14, -4
 611:Drivers/STM32F1xx_HAL_Driver/Src/stm32f1xx_hal_dma.c ****   uint32_t source_it = hdma->Instance->CCR;
 1681              		.loc 1 611 0
 1682 0002 C36B     		ldr	r3, [r0, #60]
 1683 0004 1A68     		ldr	r2, [r3]
 1684              	.LVL67:
 612:Drivers/STM32F1xx_HAL_Driver/Src/stm32f1xx_hal_dma.c ****   
 1685              		.loc 1 612 0
 1686 0006 0468     		ldr	r4, [r0]
 1687 0008 2568     		ldr	r5, [r4]
 1688              	.LVL68:
 615:Drivers/STM32F1xx_HAL_Driver/Src/stm32f1xx_hal_dma.c ****   {
 1689              		.loc 1 615 0
 1690 000a 016C     		ldr	r1, [r0, #64]
 1691 000c 0423     		movs	r3, #4
 1692 000e 8B40     		lsls	r3, r3, r1
 1693 0010 1342     		tst	r3, r2
 1694 0012 00F09D80 		beq	.L291
 615:Drivers/STM32F1xx_HAL_Driver/Src/stm32f1xx_hal_dma.c ****   {
 1695              		.loc 1 615 0 is_stmt 0 discriminator 1
 1696 0016 15F0040F 		tst	r5, #4
 1697 001a 00F09980 		beq	.L291
 618:Drivers/STM32F1xx_HAL_Driver/Src/stm32f1xx_hal_dma.c ****     {
 1698              		.loc 1 618 0 is_stmt 1
 1699 001e 2368     		ldr	r3, [r4]
 1700 0020 13F0200F 		tst	r3, #32
ARM GAS  /tmp/cc6lcHVI.s 			page 51


 1701 0024 03D1     		bne	.L292
 621:Drivers/STM32F1xx_HAL_Driver/Src/stm32f1xx_hal_dma.c ****     }
 1702              		.loc 1 621 0
 1703 0026 2368     		ldr	r3, [r4]
 1704 0028 23F00403 		bic	r3, r3, #4
 1705 002c 2360     		str	r3, [r4]
 1706              	.L292:
 624:Drivers/STM32F1xx_HAL_Driver/Src/stm32f1xx_hal_dma.c **** 
 1707              		.loc 1 624 0
 1708 002e 0368     		ldr	r3, [r0]
 1709 0030 A84A     		ldr	r2, .L389
 1710              	.LVL69:
 1711 0032 9342     		cmp	r3, r2
 1712 0034 43D9     		bls	.L293
 624:Drivers/STM32F1xx_HAL_Driver/Src/stm32f1xx_hal_dma.c **** 
 1713              		.loc 1 624 0 is_stmt 0 discriminator 1
 1714 0036 783A     		subs	r2, r2, #120
 1715 0038 9342     		cmp	r3, r2
 1716 003a 3CD0     		beq	.L344
 624:Drivers/STM32F1xx_HAL_Driver/Src/stm32f1xx_hal_dma.c **** 
 1717              		.loc 1 624 0 discriminator 3
 1718 003c 1432     		adds	r2, r2, #20
 1719 003e 9342     		cmp	r3, r2
 1720 0040 37D0     		beq	.L345
 624:Drivers/STM32F1xx_HAL_Driver/Src/stm32f1xx_hal_dma.c **** 
 1721              		.loc 1 624 0 discriminator 5
 1722 0042 1432     		adds	r2, r2, #20
 1723 0044 9342     		cmp	r3, r2
 1724 0046 31D0     		beq	.L346
 624:Drivers/STM32F1xx_HAL_Driver/Src/stm32f1xx_hal_dma.c **** 
 1725              		.loc 1 624 0 discriminator 7
 1726 0048 1432     		adds	r2, r2, #20
 1727 004a 9342     		cmp	r3, r2
 1728 004c 2BD0     		beq	.L347
 624:Drivers/STM32F1xx_HAL_Driver/Src/stm32f1xx_hal_dma.c **** 
 1729              		.loc 1 624 0 discriminator 9
 1730 004e 1432     		adds	r2, r2, #20
 1731 0050 9342     		cmp	r3, r2
 1732 0052 25D0     		beq	.L348
 624:Drivers/STM32F1xx_HAL_Driver/Src/stm32f1xx_hal_dma.c **** 
 1733              		.loc 1 624 0 discriminator 11
 1734 0054 1432     		adds	r2, r2, #20
 1735 0056 9342     		cmp	r3, r2
 1736 0058 1FD0     		beq	.L349
 624:Drivers/STM32F1xx_HAL_Driver/Src/stm32f1xx_hal_dma.c **** 
 1737              		.loc 1 624 0 discriminator 13
 1738 005a 1432     		adds	r2, r2, #20
 1739 005c 9342     		cmp	r3, r2
 1740 005e 19D0     		beq	.L350
 624:Drivers/STM32F1xx_HAL_Driver/Src/stm32f1xx_hal_dma.c **** 
 1741              		.loc 1 624 0 discriminator 15
 1742 0060 02F56272 		add	r2, r2, #904
 1743 0064 9342     		cmp	r3, r2
 1744 0066 13D0     		beq	.L351
 624:Drivers/STM32F1xx_HAL_Driver/Src/stm32f1xx_hal_dma.c **** 
 1745              		.loc 1 624 0 discriminator 17
 1746 0068 1432     		adds	r2, r2, #20
ARM GAS  /tmp/cc6lcHVI.s 			page 52


 1747 006a 9342     		cmp	r3, r2
 1748 006c 0ED0     		beq	.L352
 624:Drivers/STM32F1xx_HAL_Driver/Src/stm32f1xx_hal_dma.c **** 
 1749              		.loc 1 624 0 discriminator 19
 1750 006e 1432     		adds	r2, r2, #20
 1751 0070 9342     		cmp	r3, r2
 1752 0072 08D0     		beq	.L353
 624:Drivers/STM32F1xx_HAL_Driver/Src/stm32f1xx_hal_dma.c **** 
 1753              		.loc 1 624 0 discriminator 21
 1754 0074 1432     		adds	r2, r2, #20
 1755 0076 9342     		cmp	r3, r2
 1756 0078 02D1     		bne	.L354
 624:Drivers/STM32F1xx_HAL_Driver/Src/stm32f1xx_hal_dma.c **** 
 1757              		.loc 1 624 0
 1758 007a 4FF48042 		mov	r2, #16384
 1759 007e 1BE0     		b	.L294
 1760              	.L354:
 1761 0080 4FF48022 		mov	r2, #262144
 1762 0084 18E0     		b	.L294
 1763              	.L353:
 1764 0086 4FF48062 		mov	r2, #1024
 1765 008a 15E0     		b	.L294
 1766              	.L352:
 1767 008c 4022     		movs	r2, #64
 1768 008e 13E0     		b	.L294
 1769              	.L351:
 1770 0090 0422     		movs	r2, #4
 1771 0092 11E0     		b	.L294
 1772              	.L350:
 1773 0094 4FF08062 		mov	r2, #67108864
 1774 0098 0EE0     		b	.L294
 1775              	.L349:
 1776 009a 4FF48002 		mov	r2, #4194304
 1777 009e 0BE0     		b	.L294
 1778              	.L348:
 1779 00a0 4FF48022 		mov	r2, #262144
 1780 00a4 08E0     		b	.L294
 1781              	.L347:
 1782 00a6 4FF48042 		mov	r2, #16384
 1783 00aa 05E0     		b	.L294
 1784              	.L346:
 1785 00ac 4FF48062 		mov	r2, #1024
 1786 00b0 02E0     		b	.L294
 1787              	.L345:
 1788 00b2 4022     		movs	r2, #64
 1789 00b4 00E0     		b	.L294
 1790              	.L344:
 1791 00b6 0422     		movs	r2, #4
 1792              	.L294:
 624:Drivers/STM32F1xx_HAL_Driver/Src/stm32f1xx_hal_dma.c **** 
 1793              		.loc 1 624 0 discriminator 46
 1794 00b8 874B     		ldr	r3, .L389+4
 1795 00ba 5A60     		str	r2, [r3, #4]
 1796 00bc 42E0     		b	.L305
 1797              	.L293:
 624:Drivers/STM32F1xx_HAL_Driver/Src/stm32f1xx_hal_dma.c **** 
 1798              		.loc 1 624 0 discriminator 2
ARM GAS  /tmp/cc6lcHVI.s 			page 53


 1799 00be 874A     		ldr	r2, .L389+8
 1800 00c0 9342     		cmp	r3, r2
 1801 00c2 3CD0     		beq	.L355
 624:Drivers/STM32F1xx_HAL_Driver/Src/stm32f1xx_hal_dma.c **** 
 1802              		.loc 1 624 0 discriminator 47
 1803 00c4 1432     		adds	r2, r2, #20
 1804 00c6 9342     		cmp	r3, r2
 1805 00c8 37D0     		beq	.L356
 624:Drivers/STM32F1xx_HAL_Driver/Src/stm32f1xx_hal_dma.c **** 
 1806              		.loc 1 624 0 discriminator 49
 1807 00ca 1432     		adds	r2, r2, #20
 1808 00cc 9342     		cmp	r3, r2
 1809 00ce 31D0     		beq	.L357
 624:Drivers/STM32F1xx_HAL_Driver/Src/stm32f1xx_hal_dma.c **** 
 1810              		.loc 1 624 0 discriminator 51
 1811 00d0 1432     		adds	r2, r2, #20
 1812 00d2 9342     		cmp	r3, r2
 1813 00d4 2BD0     		beq	.L358
 624:Drivers/STM32F1xx_HAL_Driver/Src/stm32f1xx_hal_dma.c **** 
 1814              		.loc 1 624 0 discriminator 53
 1815 00d6 1432     		adds	r2, r2, #20
 1816 00d8 9342     		cmp	r3, r2
 1817 00da 25D0     		beq	.L359
 624:Drivers/STM32F1xx_HAL_Driver/Src/stm32f1xx_hal_dma.c **** 
 1818              		.loc 1 624 0 discriminator 55
 1819 00dc 1432     		adds	r2, r2, #20
 1820 00de 9342     		cmp	r3, r2
 1821 00e0 1FD0     		beq	.L360
 624:Drivers/STM32F1xx_HAL_Driver/Src/stm32f1xx_hal_dma.c **** 
 1822              		.loc 1 624 0 discriminator 57
 1823 00e2 1432     		adds	r2, r2, #20
 1824 00e4 9342     		cmp	r3, r2
 1825 00e6 19D0     		beq	.L361
 624:Drivers/STM32F1xx_HAL_Driver/Src/stm32f1xx_hal_dma.c **** 
 1826              		.loc 1 624 0 discriminator 59
 1827 00e8 02F56272 		add	r2, r2, #904
 1828 00ec 9342     		cmp	r3, r2
 1829 00ee 13D0     		beq	.L362
 624:Drivers/STM32F1xx_HAL_Driver/Src/stm32f1xx_hal_dma.c **** 
 1830              		.loc 1 624 0 discriminator 61
 1831 00f0 1432     		adds	r2, r2, #20
 1832 00f2 9342     		cmp	r3, r2
 1833 00f4 0ED0     		beq	.L363
 624:Drivers/STM32F1xx_HAL_Driver/Src/stm32f1xx_hal_dma.c **** 
 1834              		.loc 1 624 0 discriminator 63
 1835 00f6 1432     		adds	r2, r2, #20
 1836 00f8 9342     		cmp	r3, r2
 1837 00fa 08D0     		beq	.L364
 624:Drivers/STM32F1xx_HAL_Driver/Src/stm32f1xx_hal_dma.c **** 
 1838              		.loc 1 624 0 discriminator 65
 1839 00fc 1432     		adds	r2, r2, #20
 1840 00fe 9342     		cmp	r3, r2
 1841 0100 02D1     		bne	.L365
 624:Drivers/STM32F1xx_HAL_Driver/Src/stm32f1xx_hal_dma.c **** 
 1842              		.loc 1 624 0
 1843 0102 4FF48042 		mov	r2, #16384
 1844 0106 1BE0     		b	.L306
ARM GAS  /tmp/cc6lcHVI.s 			page 54


 1845              	.L365:
 1846 0108 4FF48022 		mov	r2, #262144
 1847 010c 18E0     		b	.L306
 1848              	.L364:
 1849 010e 4FF48062 		mov	r2, #1024
 1850 0112 15E0     		b	.L306
 1851              	.L363:
 1852 0114 4022     		movs	r2, #64
 1853 0116 13E0     		b	.L306
 1854              	.L362:
 1855 0118 0422     		movs	r2, #4
 1856 011a 11E0     		b	.L306
 1857              	.L361:
 1858 011c 4FF08062 		mov	r2, #67108864
 1859 0120 0EE0     		b	.L306
 1860              	.L360:
 1861 0122 4FF48002 		mov	r2, #4194304
 1862 0126 0BE0     		b	.L306
 1863              	.L359:
 1864 0128 4FF48022 		mov	r2, #262144
 1865 012c 08E0     		b	.L306
 1866              	.L358:
 1867 012e 4FF48042 		mov	r2, #16384
 1868 0132 05E0     		b	.L306
 1869              	.L357:
 1870 0134 4FF48062 		mov	r2, #1024
 1871 0138 02E0     		b	.L306
 1872              	.L356:
 1873 013a 4022     		movs	r2, #64
 1874 013c 00E0     		b	.L306
 1875              	.L355:
 1876 013e 0422     		movs	r2, #4
 1877              	.L306:
 624:Drivers/STM32F1xx_HAL_Driver/Src/stm32f1xx_hal_dma.c **** 
 1878              		.loc 1 624 0 discriminator 90
 1879 0140 674B     		ldr	r3, .L389+12
 1880 0142 5A60     		str	r2, [r3, #4]
 1881              	.L305:
 629:Drivers/STM32F1xx_HAL_Driver/Src/stm32f1xx_hal_dma.c ****     {
 1882              		.loc 1 629 0 is_stmt 1
 1883 0144 C36A     		ldr	r3, [r0, #44]
 1884 0146 002B     		cmp	r3, #0
 1885 0148 00F0C280 		beq	.L290
 632:Drivers/STM32F1xx_HAL_Driver/Src/stm32f1xx_hal_dma.c ****     }
 1886              		.loc 1 632 0
 1887 014c 9847     		blx	r3
 1888              	.LVL70:
 1889 014e 38BD     		pop	{r3, r4, r5, pc}
 1890              	.LVL71:
 1891              	.L291:
 637:Drivers/STM32F1xx_HAL_Driver/Src/stm32f1xx_hal_dma.c ****   {
 1892              		.loc 1 637 0
 1893 0150 0223     		movs	r3, #2
 1894 0152 8B40     		lsls	r3, r3, r1
 1895 0154 1342     		tst	r3, r2
 1896 0156 00F0A180 		beq	.L318
 637:Drivers/STM32F1xx_HAL_Driver/Src/stm32f1xx_hal_dma.c ****   {
ARM GAS  /tmp/cc6lcHVI.s 			page 55


 1897              		.loc 1 637 0 is_stmt 0 discriminator 1
 1898 015a 15F0020F 		tst	r5, #2
 1899 015e 00F09D80 		beq	.L318
 639:Drivers/STM32F1xx_HAL_Driver/Src/stm32f1xx_hal_dma.c ****     {
 1900              		.loc 1 639 0 is_stmt 1
 1901 0162 2368     		ldr	r3, [r4]
 1902 0164 13F0200F 		tst	r3, #32
 1903 0168 06D1     		bne	.L319
 642:Drivers/STM32F1xx_HAL_Driver/Src/stm32f1xx_hal_dma.c **** 
 1904              		.loc 1 642 0
 1905 016a 2368     		ldr	r3, [r4]
 1906 016c 23F00A03 		bic	r3, r3, #10
 1907 0170 2360     		str	r3, [r4]
 645:Drivers/STM32F1xx_HAL_Driver/Src/stm32f1xx_hal_dma.c ****     }
 1908              		.loc 1 645 0
 1909 0172 0123     		movs	r3, #1
 1910 0174 80F82130 		strb	r3, [r0, #33]
 1911              	.L319:
 648:Drivers/STM32F1xx_HAL_Driver/Src/stm32f1xx_hal_dma.c **** 
 1912              		.loc 1 648 0
 1913 0178 0368     		ldr	r3, [r0]
 1914 017a 564A     		ldr	r2, .L389
 1915              	.LVL72:
 1916 017c 9342     		cmp	r3, r2
 1917 017e 43D9     		bls	.L320
 648:Drivers/STM32F1xx_HAL_Driver/Src/stm32f1xx_hal_dma.c **** 
 1918              		.loc 1 648 0 is_stmt 0 discriminator 1
 1919 0180 783A     		subs	r2, r2, #120
 1920 0182 9342     		cmp	r3, r2
 1921 0184 3CD0     		beq	.L366
 648:Drivers/STM32F1xx_HAL_Driver/Src/stm32f1xx_hal_dma.c **** 
 1922              		.loc 1 648 0 discriminator 3
 1923 0186 1432     		adds	r2, r2, #20
 1924 0188 9342     		cmp	r3, r2
 1925 018a 37D0     		beq	.L367
 648:Drivers/STM32F1xx_HAL_Driver/Src/stm32f1xx_hal_dma.c **** 
 1926              		.loc 1 648 0 discriminator 5
 1927 018c 1432     		adds	r2, r2, #20
 1928 018e 9342     		cmp	r3, r2
 1929 0190 31D0     		beq	.L368
 648:Drivers/STM32F1xx_HAL_Driver/Src/stm32f1xx_hal_dma.c **** 
 1930              		.loc 1 648 0 discriminator 7
 1931 0192 1432     		adds	r2, r2, #20
 1932 0194 9342     		cmp	r3, r2
 1933 0196 2BD0     		beq	.L369
 648:Drivers/STM32F1xx_HAL_Driver/Src/stm32f1xx_hal_dma.c **** 
 1934              		.loc 1 648 0 discriminator 9
 1935 0198 1432     		adds	r2, r2, #20
 1936 019a 9342     		cmp	r3, r2
 1937 019c 25D0     		beq	.L370
 648:Drivers/STM32F1xx_HAL_Driver/Src/stm32f1xx_hal_dma.c **** 
 1938              		.loc 1 648 0 discriminator 11
 1939 019e 1432     		adds	r2, r2, #20
 1940 01a0 9342     		cmp	r3, r2
 1941 01a2 1FD0     		beq	.L371
 648:Drivers/STM32F1xx_HAL_Driver/Src/stm32f1xx_hal_dma.c **** 
 1942              		.loc 1 648 0 discriminator 13
ARM GAS  /tmp/cc6lcHVI.s 			page 56


 1943 01a4 1432     		adds	r2, r2, #20
 1944 01a6 9342     		cmp	r3, r2
 1945 01a8 19D0     		beq	.L372
 648:Drivers/STM32F1xx_HAL_Driver/Src/stm32f1xx_hal_dma.c **** 
 1946              		.loc 1 648 0 discriminator 15
 1947 01aa 02F56272 		add	r2, r2, #904
 1948 01ae 9342     		cmp	r3, r2
 1949 01b0 13D0     		beq	.L373
 648:Drivers/STM32F1xx_HAL_Driver/Src/stm32f1xx_hal_dma.c **** 
 1950              		.loc 1 648 0 discriminator 17
 1951 01b2 1432     		adds	r2, r2, #20
 1952 01b4 9342     		cmp	r3, r2
 1953 01b6 0ED0     		beq	.L374
 648:Drivers/STM32F1xx_HAL_Driver/Src/stm32f1xx_hal_dma.c **** 
 1954              		.loc 1 648 0 discriminator 19
 1955 01b8 1432     		adds	r2, r2, #20
 1956 01ba 9342     		cmp	r3, r2
 1957 01bc 08D0     		beq	.L375
 648:Drivers/STM32F1xx_HAL_Driver/Src/stm32f1xx_hal_dma.c **** 
 1958              		.loc 1 648 0 discriminator 21
 1959 01be 1432     		adds	r2, r2, #20
 1960 01c0 9342     		cmp	r3, r2
 1961 01c2 02D1     		bne	.L376
 648:Drivers/STM32F1xx_HAL_Driver/Src/stm32f1xx_hal_dma.c **** 
 1962              		.loc 1 648 0
 1963 01c4 4FF40052 		mov	r2, #8192
 1964 01c8 1BE0     		b	.L321
 1965              	.L376:
 1966 01ca 4FF40032 		mov	r2, #131072
 1967 01ce 18E0     		b	.L321
 1968              	.L375:
 1969 01d0 4FF40072 		mov	r2, #512
 1970 01d4 15E0     		b	.L321
 1971              	.L374:
 1972 01d6 2022     		movs	r2, #32
 1973 01d8 13E0     		b	.L321
 1974              	.L373:
 1975 01da 0222     		movs	r2, #2
 1976 01dc 11E0     		b	.L321
 1977              	.L372:
 1978 01de 4FF00072 		mov	r2, #33554432
 1979 01e2 0EE0     		b	.L321
 1980              	.L371:
 1981 01e4 4FF40012 		mov	r2, #2097152
 1982 01e8 0BE0     		b	.L321
 1983              	.L370:
 1984 01ea 4FF40032 		mov	r2, #131072
 1985 01ee 08E0     		b	.L321
 1986              	.L369:
 1987 01f0 4FF40052 		mov	r2, #8192
 1988 01f4 05E0     		b	.L321
 1989              	.L368:
 1990 01f6 4FF40072 		mov	r2, #512
 1991 01fa 02E0     		b	.L321
 1992              	.L367:
 1993 01fc 2022     		movs	r2, #32
 1994 01fe 00E0     		b	.L321
ARM GAS  /tmp/cc6lcHVI.s 			page 57


 1995              	.L366:
 1996 0200 0222     		movs	r2, #2
 1997              	.L321:
 648:Drivers/STM32F1xx_HAL_Driver/Src/stm32f1xx_hal_dma.c **** 
 1998              		.loc 1 648 0 discriminator 46
 1999 0202 354B     		ldr	r3, .L389+4
 2000 0204 5A60     		str	r2, [r3, #4]
 2001 0206 42E0     		b	.L332
 2002              	.L320:
 648:Drivers/STM32F1xx_HAL_Driver/Src/stm32f1xx_hal_dma.c **** 
 2003              		.loc 1 648 0 discriminator 2
 2004 0208 344A     		ldr	r2, .L389+8
 2005 020a 9342     		cmp	r3, r2
 2006 020c 3CD0     		beq	.L377
 648:Drivers/STM32F1xx_HAL_Driver/Src/stm32f1xx_hal_dma.c **** 
 2007              		.loc 1 648 0 discriminator 47
 2008 020e 1432     		adds	r2, r2, #20
 2009 0210 9342     		cmp	r3, r2
 2010 0212 37D0     		beq	.L378
 648:Drivers/STM32F1xx_HAL_Driver/Src/stm32f1xx_hal_dma.c **** 
 2011              		.loc 1 648 0 discriminator 49
 2012 0214 1432     		adds	r2, r2, #20
 2013 0216 9342     		cmp	r3, r2
 2014 0218 31D0     		beq	.L379
 648:Drivers/STM32F1xx_HAL_Driver/Src/stm32f1xx_hal_dma.c **** 
 2015              		.loc 1 648 0 discriminator 51
 2016 021a 1432     		adds	r2, r2, #20
 2017 021c 9342     		cmp	r3, r2
 2018 021e 2BD0     		beq	.L380
 648:Drivers/STM32F1xx_HAL_Driver/Src/stm32f1xx_hal_dma.c **** 
 2019              		.loc 1 648 0 discriminator 53
 2020 0220 1432     		adds	r2, r2, #20
 2021 0222 9342     		cmp	r3, r2
 2022 0224 25D0     		beq	.L381
 648:Drivers/STM32F1xx_HAL_Driver/Src/stm32f1xx_hal_dma.c **** 
 2023              		.loc 1 648 0 discriminator 55
 2024 0226 1432     		adds	r2, r2, #20
 2025 0228 9342     		cmp	r3, r2
 2026 022a 1FD0     		beq	.L382
 648:Drivers/STM32F1xx_HAL_Driver/Src/stm32f1xx_hal_dma.c **** 
 2027              		.loc 1 648 0 discriminator 57
 2028 022c 1432     		adds	r2, r2, #20
 2029 022e 9342     		cmp	r3, r2
 2030 0230 19D0     		beq	.L383
 648:Drivers/STM32F1xx_HAL_Driver/Src/stm32f1xx_hal_dma.c **** 
 2031              		.loc 1 648 0 discriminator 59
 2032 0232 02F56272 		add	r2, r2, #904
 2033 0236 9342     		cmp	r3, r2
 2034 0238 13D0     		beq	.L384
 648:Drivers/STM32F1xx_HAL_Driver/Src/stm32f1xx_hal_dma.c **** 
 2035              		.loc 1 648 0 discriminator 61
 2036 023a 1432     		adds	r2, r2, #20
 2037 023c 9342     		cmp	r3, r2
 2038 023e 0ED0     		beq	.L385
 648:Drivers/STM32F1xx_HAL_Driver/Src/stm32f1xx_hal_dma.c **** 
 2039              		.loc 1 648 0 discriminator 63
 2040 0240 1432     		adds	r2, r2, #20
ARM GAS  /tmp/cc6lcHVI.s 			page 58


 2041 0242 9342     		cmp	r3, r2
 2042 0244 08D0     		beq	.L386
 648:Drivers/STM32F1xx_HAL_Driver/Src/stm32f1xx_hal_dma.c **** 
 2043              		.loc 1 648 0 discriminator 65
 2044 0246 1432     		adds	r2, r2, #20
 2045 0248 9342     		cmp	r3, r2
 2046 024a 02D1     		bne	.L387
 648:Drivers/STM32F1xx_HAL_Driver/Src/stm32f1xx_hal_dma.c **** 
 2047              		.loc 1 648 0
 2048 024c 4FF40052 		mov	r2, #8192
 2049 0250 1BE0     		b	.L333
 2050              	.L387:
 2051 0252 4FF40032 		mov	r2, #131072
 2052 0256 18E0     		b	.L333
 2053              	.L386:
 2054 0258 4FF40072 		mov	r2, #512
 2055 025c 15E0     		b	.L333
 2056              	.L385:
 2057 025e 2022     		movs	r2, #32
 2058 0260 13E0     		b	.L333
 2059              	.L384:
 2060 0262 0222     		movs	r2, #2
 2061 0264 11E0     		b	.L333
 2062              	.L383:
 2063 0266 4FF00072 		mov	r2, #33554432
 2064 026a 0EE0     		b	.L333
 2065              	.L382:
 2066 026c 4FF40012 		mov	r2, #2097152
 2067 0270 0BE0     		b	.L333
 2068              	.L381:
 2069 0272 4FF40032 		mov	r2, #131072
 2070 0276 08E0     		b	.L333
 2071              	.L380:
 2072 0278 4FF40052 		mov	r2, #8192
 2073 027c 05E0     		b	.L333
 2074              	.L379:
 2075 027e 4FF40072 		mov	r2, #512
 2076 0282 02E0     		b	.L333
 2077              	.L378:
 2078 0284 2022     		movs	r2, #32
 2079 0286 00E0     		b	.L333
 2080              	.L377:
 2081 0288 0222     		movs	r2, #2
 2082              	.L333:
 648:Drivers/STM32F1xx_HAL_Driver/Src/stm32f1xx_hal_dma.c **** 
 2083              		.loc 1 648 0 discriminator 90
 2084 028a 154B     		ldr	r3, .L389+12
 2085 028c 5A60     		str	r2, [r3, #4]
 2086              	.L332:
 651:Drivers/STM32F1xx_HAL_Driver/Src/stm32f1xx_hal_dma.c **** 
 2087              		.loc 1 651 0 is_stmt 1
 2088 028e 0023     		movs	r3, #0
 2089 0290 80F82030 		strb	r3, [r0, #32]
 653:Drivers/STM32F1xx_HAL_Driver/Src/stm32f1xx_hal_dma.c ****     {
 2090              		.loc 1 653 0
 2091 0294 836A     		ldr	r3, [r0, #40]
 2092 0296 DBB1     		cbz	r3, .L290
ARM GAS  /tmp/cc6lcHVI.s 			page 59


 656:Drivers/STM32F1xx_HAL_Driver/Src/stm32f1xx_hal_dma.c ****     }
 2093              		.loc 1 656 0
 2094 0298 9847     		blx	r3
 2095              	.LVL73:
 2096 029a 38BD     		pop	{r3, r4, r5, pc}
 2097              	.LVL74:
 2098              	.L318:
 661:Drivers/STM32F1xx_HAL_Driver/Src/stm32f1xx_hal_dma.c ****   {
 2099              		.loc 1 661 0
 2100 029c 0823     		movs	r3, #8
 2101 029e 8B40     		lsls	r3, r3, r1
 2102 02a0 1342     		tst	r3, r2
 2103 02a2 15D0     		beq	.L290
 661:Drivers/STM32F1xx_HAL_Driver/Src/stm32f1xx_hal_dma.c ****   {
 2104              		.loc 1 661 0 is_stmt 0 discriminator 1
 2105 02a4 15F0080F 		tst	r5, #8
 2106 02a8 12D0     		beq	.L290
 666:Drivers/STM32F1xx_HAL_Driver/Src/stm32f1xx_hal_dma.c **** 
 2107              		.loc 1 666 0 is_stmt 1
 2108 02aa 2368     		ldr	r3, [r4]
 2109 02ac 23F00E03 		bic	r3, r3, #14
 2110 02b0 2360     		str	r3, [r4]
 669:Drivers/STM32F1xx_HAL_Driver/Src/stm32f1xx_hal_dma.c **** 
 2111              		.loc 1 669 0
 2112 02b2 C26B     		ldr	r2, [r0, #60]
 2113              	.LVL75:
 2114 02b4 016C     		ldr	r1, [r0, #64]
 2115 02b6 0123     		movs	r3, #1
 2116 02b8 03FA01F1 		lsl	r1, r3, r1
 2117 02bc 5160     		str	r1, [r2, #4]
 672:Drivers/STM32F1xx_HAL_Driver/Src/stm32f1xx_hal_dma.c **** 
 2118              		.loc 1 672 0
 2119 02be 8363     		str	r3, [r0, #56]
 675:Drivers/STM32F1xx_HAL_Driver/Src/stm32f1xx_hal_dma.c **** 
 2120              		.loc 1 675 0
 2121 02c0 80F82130 		strb	r3, [r0, #33]
 678:Drivers/STM32F1xx_HAL_Driver/Src/stm32f1xx_hal_dma.c **** 
 2122              		.loc 1 678 0
 2123 02c4 0023     		movs	r3, #0
 2124 02c6 80F82030 		strb	r3, [r0, #32]
 680:Drivers/STM32F1xx_HAL_Driver/Src/stm32f1xx_hal_dma.c ****     {
 2125              		.loc 1 680 0
 2126 02ca 036B     		ldr	r3, [r0, #48]
 2127 02cc 03B1     		cbz	r3, .L290
 683:Drivers/STM32F1xx_HAL_Driver/Src/stm32f1xx_hal_dma.c ****     }
 2128              		.loc 1 683 0
 2129 02ce 9847     		blx	r3
 2130              	.LVL76:
 2131              	.L290:
 2132 02d0 38BD     		pop	{r3, r4, r5, pc}
 2133              	.LVL77:
 2134              	.L390:
 2135 02d2 00BF     		.align	2
 2136              	.L389:
 2137 02d4 80000240 		.word	1073873024
 2138 02d8 00040240 		.word	1073873920
 2139 02dc 08000240 		.word	1073872904
ARM GAS  /tmp/cc6lcHVI.s 			page 60


 2140 02e0 00000240 		.word	1073872896
 2141              		.cfi_endproc
 2142              	.LFE70:
 2144              		.section	.text.HAL_DMA_RegisterCallback,"ax",%progbits
 2145              		.align	2
 2146              		.global	HAL_DMA_RegisterCallback
 2147              		.thumb
 2148              		.thumb_func
 2150              	HAL_DMA_RegisterCallback:
 2151              	.LFB71:
 700:Drivers/STM32F1xx_HAL_Driver/Src/stm32f1xx_hal_dma.c ****   HAL_StatusTypeDef status = HAL_OK;
 2152              		.loc 1 700 0
 2153              		.cfi_startproc
 2154              		@ args = 0, pretend = 0, frame = 0
 2155              		@ frame_needed = 0, uses_anonymous_args = 0
 2156              		@ link register save eliminated.
 2157              	.LVL78:
 704:Drivers/STM32F1xx_HAL_Driver/Src/stm32f1xx_hal_dma.c ****   
 2158              		.loc 1 704 0
 2159 0000 90F82030 		ldrb	r3, [r0, #32]	@ zero_extendqisi2
 2160 0004 012B     		cmp	r3, #1
 2161 0006 20D0     		beq	.L399
 704:Drivers/STM32F1xx_HAL_Driver/Src/stm32f1xx_hal_dma.c ****   
 2162              		.loc 1 704 0 is_stmt 0 discriminator 2
 2163 0008 0123     		movs	r3, #1
 2164 000a 80F82030 		strb	r3, [r0, #32]
 706:Drivers/STM32F1xx_HAL_Driver/Src/stm32f1xx_hal_dma.c ****   {
 2165              		.loc 1 706 0 is_stmt 1 discriminator 2
 2166 000e 90F82130 		ldrb	r3, [r0, #33]	@ zero_extendqisi2
 2167 0012 012B     		cmp	r3, #1
 2168 0014 11D1     		bne	.L400
 708:Drivers/STM32F1xx_HAL_Driver/Src/stm32f1xx_hal_dma.c ****     {
 2169              		.loc 1 708 0
 2170 0016 0329     		cmp	r1, #3
 2171 0018 11D8     		bhi	.L401
 2172 001a DFE801F0 		tbb	[pc, r1]
 2173              	.L395:
 2174 001e 02       		.byte	(.L394-.L395)/2
 2175 001f 05       		.byte	(.L396-.L395)/2
 2176 0020 08       		.byte	(.L397-.L395)/2
 2177 0021 0B       		.byte	(.L398-.L395)/2
 2178              		.p2align 1
 2179              	.L394:
 711:Drivers/STM32F1xx_HAL_Driver/Src/stm32f1xx_hal_dma.c ****       break;
 2180              		.loc 1 711 0
 2181 0022 8262     		str	r2, [r0, #40]
 701:Drivers/STM32F1xx_HAL_Driver/Src/stm32f1xx_hal_dma.c ****   
 2182              		.loc 1 701 0
 2183 0024 0023     		movs	r3, #0
 712:Drivers/STM32F1xx_HAL_Driver/Src/stm32f1xx_hal_dma.c ****       
 2184              		.loc 1 712 0
 2185 0026 0BE0     		b	.L393
 2186              	.L396:
 715:Drivers/STM32F1xx_HAL_Driver/Src/stm32f1xx_hal_dma.c ****       break;         
 2187              		.loc 1 715 0
 2188 0028 C262     		str	r2, [r0, #44]
 701:Drivers/STM32F1xx_HAL_Driver/Src/stm32f1xx_hal_dma.c ****   
ARM GAS  /tmp/cc6lcHVI.s 			page 61


 2189              		.loc 1 701 0
 2190 002a 0023     		movs	r3, #0
 716:Drivers/STM32F1xx_HAL_Driver/Src/stm32f1xx_hal_dma.c **** 
 2191              		.loc 1 716 0
 2192 002c 08E0     		b	.L393
 2193              	.L397:
 719:Drivers/STM32F1xx_HAL_Driver/Src/stm32f1xx_hal_dma.c ****       break;         
 2194              		.loc 1 719 0
 2195 002e 0263     		str	r2, [r0, #48]
 701:Drivers/STM32F1xx_HAL_Driver/Src/stm32f1xx_hal_dma.c ****   
 2196              		.loc 1 701 0
 2197 0030 0023     		movs	r3, #0
 720:Drivers/STM32F1xx_HAL_Driver/Src/stm32f1xx_hal_dma.c ****       
 2198              		.loc 1 720 0
 2199 0032 05E0     		b	.L393
 2200              	.L398:
 723:Drivers/STM32F1xx_HAL_Driver/Src/stm32f1xx_hal_dma.c ****       break; 
 2201              		.loc 1 723 0
 2202 0034 4263     		str	r2, [r0, #52]
 701:Drivers/STM32F1xx_HAL_Driver/Src/stm32f1xx_hal_dma.c ****   
 2203              		.loc 1 701 0
 2204 0036 0023     		movs	r3, #0
 724:Drivers/STM32F1xx_HAL_Driver/Src/stm32f1xx_hal_dma.c ****       
 2205              		.loc 1 724 0
 2206 0038 02E0     		b	.L393
 2207              	.L400:
 733:Drivers/STM32F1xx_HAL_Driver/Src/stm32f1xx_hal_dma.c ****   } 
 2208              		.loc 1 733 0
 2209 003a 0123     		movs	r3, #1
 2210 003c 00E0     		b	.L393
 2211              	.L401:
 727:Drivers/STM32F1xx_HAL_Driver/Src/stm32f1xx_hal_dma.c ****       break;                                                            
 2212              		.loc 1 727 0
 2213 003e 0123     		movs	r3, #1
 2214              	.L393:
 2215              	.LVL79:
 737:Drivers/STM32F1xx_HAL_Driver/Src/stm32f1xx_hal_dma.c ****   
 2216              		.loc 1 737 0
 2217 0040 0022     		movs	r2, #0
 2218              	.LVL80:
 2219 0042 80F82020 		strb	r2, [r0, #32]
 739:Drivers/STM32F1xx_HAL_Driver/Src/stm32f1xx_hal_dma.c **** }
 2220              		.loc 1 739 0
 2221 0046 1846     		mov	r0, r3
 2222              	.LVL81:
 2223 0048 7047     		bx	lr
 2224              	.LVL82:
 2225              	.L399:
 704:Drivers/STM32F1xx_HAL_Driver/Src/stm32f1xx_hal_dma.c ****   
 2226              		.loc 1 704 0
 2227 004a 0220     		movs	r0, #2
 2228              	.LVL83:
 740:Drivers/STM32F1xx_HAL_Driver/Src/stm32f1xx_hal_dma.c **** 
 2229              		.loc 1 740 0
 2230 004c 7047     		bx	lr
 2231              		.cfi_endproc
 2232              	.LFE71:
ARM GAS  /tmp/cc6lcHVI.s 			page 62


 2234 004e 00BF     		.section	.text.HAL_DMA_UnRegisterCallback,"ax",%progbits
 2235              		.align	2
 2236              		.global	HAL_DMA_UnRegisterCallback
 2237              		.thumb
 2238              		.thumb_func
 2240              	HAL_DMA_UnRegisterCallback:
 2241              	.LFB72:
 751:Drivers/STM32F1xx_HAL_Driver/Src/stm32f1xx_hal_dma.c ****   HAL_StatusTypeDef status = HAL_OK;
 2242              		.loc 1 751 0
 2243              		.cfi_startproc
 2244              		@ args = 0, pretend = 0, frame = 0
 2245              		@ frame_needed = 0, uses_anonymous_args = 0
 2246              		@ link register save eliminated.
 2247              	.LVL84:
 755:Drivers/STM32F1xx_HAL_Driver/Src/stm32f1xx_hal_dma.c ****   
 2248              		.loc 1 755 0
 2249 0000 90F82030 		ldrb	r3, [r0, #32]	@ zero_extendqisi2
 2250 0004 012B     		cmp	r3, #1
 2251 0006 27D0     		beq	.L411
 755:Drivers/STM32F1xx_HAL_Driver/Src/stm32f1xx_hal_dma.c ****   
 2252              		.loc 1 755 0 is_stmt 0 discriminator 2
 2253 0008 0123     		movs	r3, #1
 2254 000a 80F82030 		strb	r3, [r0, #32]
 757:Drivers/STM32F1xx_HAL_Driver/Src/stm32f1xx_hal_dma.c ****   {
 2255              		.loc 1 757 0 is_stmt 1 discriminator 2
 2256 000e 90F82130 		ldrb	r3, [r0, #33]	@ zero_extendqisi2
 2257 0012 012B     		cmp	r3, #1
 2258 0014 18D1     		bne	.L412
 759:Drivers/STM32F1xx_HAL_Driver/Src/stm32f1xx_hal_dma.c ****     {
 2259              		.loc 1 759 0
 2260 0016 0429     		cmp	r1, #4
 2261 0018 18D8     		bhi	.L413
 2262 001a DFE801F0 		tbb	[pc, r1]
 2263              	.L406:
 2264 001e 03       		.byte	(.L405-.L406)/2
 2265 001f 06       		.byte	(.L407-.L406)/2
 2266 0020 09       		.byte	(.L408-.L406)/2
 2267 0021 0C       		.byte	(.L409-.L406)/2
 2268 0022 0F       		.byte	(.L410-.L406)/2
 2269 0023 00       		.p2align 1
 2270              	.L405:
 762:Drivers/STM32F1xx_HAL_Driver/Src/stm32f1xx_hal_dma.c ****       break;
 2271              		.loc 1 762 0
 2272 0024 0023     		movs	r3, #0
 2273 0026 8362     		str	r3, [r0, #40]
 763:Drivers/STM32F1xx_HAL_Driver/Src/stm32f1xx_hal_dma.c **** 
 2274              		.loc 1 763 0
 2275 0028 11E0     		b	.L404
 2276              	.L407:
 766:Drivers/STM32F1xx_HAL_Driver/Src/stm32f1xx_hal_dma.c ****       break;         
 2277              		.loc 1 766 0
 2278 002a 0023     		movs	r3, #0
 2279 002c C362     		str	r3, [r0, #44]
 767:Drivers/STM32F1xx_HAL_Driver/Src/stm32f1xx_hal_dma.c **** 
 2280              		.loc 1 767 0
 2281 002e 0EE0     		b	.L404
 2282              	.L408:
ARM GAS  /tmp/cc6lcHVI.s 			page 63


 770:Drivers/STM32F1xx_HAL_Driver/Src/stm32f1xx_hal_dma.c ****       break;         
 2283              		.loc 1 770 0
 2284 0030 0023     		movs	r3, #0
 2285 0032 0363     		str	r3, [r0, #48]
 771:Drivers/STM32F1xx_HAL_Driver/Src/stm32f1xx_hal_dma.c **** 
 2286              		.loc 1 771 0
 2287 0034 0BE0     		b	.L404
 2288              	.L409:
 774:Drivers/STM32F1xx_HAL_Driver/Src/stm32f1xx_hal_dma.c ****       break; 
 2289              		.loc 1 774 0
 2290 0036 0023     		movs	r3, #0
 2291 0038 4363     		str	r3, [r0, #52]
 775:Drivers/STM32F1xx_HAL_Driver/Src/stm32f1xx_hal_dma.c **** 
 2292              		.loc 1 775 0
 2293 003a 08E0     		b	.L404
 2294              	.L410:
 778:Drivers/STM32F1xx_HAL_Driver/Src/stm32f1xx_hal_dma.c ****       hdma->XferHalfCpltCallback = NULL;
 2295              		.loc 1 778 0
 2296 003c 0023     		movs	r3, #0
 2297 003e 8362     		str	r3, [r0, #40]
 779:Drivers/STM32F1xx_HAL_Driver/Src/stm32f1xx_hal_dma.c ****       hdma->XferErrorCallback = NULL;
 2298              		.loc 1 779 0
 2299 0040 C362     		str	r3, [r0, #44]
 780:Drivers/STM32F1xx_HAL_Driver/Src/stm32f1xx_hal_dma.c ****       hdma->XferAbortCallback = NULL;
 2300              		.loc 1 780 0
 2301 0042 0363     		str	r3, [r0, #48]
 781:Drivers/STM32F1xx_HAL_Driver/Src/stm32f1xx_hal_dma.c ****       break; 
 2302              		.loc 1 781 0
 2303 0044 4363     		str	r3, [r0, #52]
 782:Drivers/STM32F1xx_HAL_Driver/Src/stm32f1xx_hal_dma.c **** 
 2304              		.loc 1 782 0
 2305 0046 02E0     		b	.L404
 2306              	.L412:
 791:Drivers/STM32F1xx_HAL_Driver/Src/stm32f1xx_hal_dma.c ****   } 
 2307              		.loc 1 791 0
 2308 0048 0123     		movs	r3, #1
 2309 004a 00E0     		b	.L404
 2310              	.L413:
 785:Drivers/STM32F1xx_HAL_Driver/Src/stm32f1xx_hal_dma.c ****       break;
 2311              		.loc 1 785 0
 2312 004c 0123     		movs	r3, #1
 2313              	.L404:
 2314              	.LVL85:
 795:Drivers/STM32F1xx_HAL_Driver/Src/stm32f1xx_hal_dma.c ****   
 2315              		.loc 1 795 0
 2316 004e 0022     		movs	r2, #0
 2317 0050 80F82020 		strb	r2, [r0, #32]
 797:Drivers/STM32F1xx_HAL_Driver/Src/stm32f1xx_hal_dma.c **** }
 2318              		.loc 1 797 0
 2319 0054 1846     		mov	r0, r3
 2320              	.LVL86:
 2321 0056 7047     		bx	lr
 2322              	.LVL87:
 2323              	.L411:
 755:Drivers/STM32F1xx_HAL_Driver/Src/stm32f1xx_hal_dma.c ****   
 2324              		.loc 1 755 0
 2325 0058 0220     		movs	r0, #2
ARM GAS  /tmp/cc6lcHVI.s 			page 64


 2326              	.LVL88:
 798:Drivers/STM32F1xx_HAL_Driver/Src/stm32f1xx_hal_dma.c ****   
 2327              		.loc 1 798 0
 2328 005a 7047     		bx	lr
 2329              		.cfi_endproc
 2330              	.LFE72:
 2332              		.section	.text.HAL_DMA_GetState,"ax",%progbits
 2333              		.align	2
 2334              		.global	HAL_DMA_GetState
 2335              		.thumb
 2336              		.thumb_func
 2338              	HAL_DMA_GetState:
 2339              	.LFB73:
 827:Drivers/STM32F1xx_HAL_Driver/Src/stm32f1xx_hal_dma.c ****   /* Return DMA handle state */
 2340              		.loc 1 827 0
 2341              		.cfi_startproc
 2342              		@ args = 0, pretend = 0, frame = 0
 2343              		@ frame_needed = 0, uses_anonymous_args = 0
 2344              		@ link register save eliminated.
 2345              	.LVL89:
 830:Drivers/STM32F1xx_HAL_Driver/Src/stm32f1xx_hal_dma.c **** 
 2346              		.loc 1 830 0
 2347 0000 90F82100 		ldrb	r0, [r0, #33]	@ zero_extendqisi2
 2348              	.LVL90:
 2349 0004 7047     		bx	lr
 2350              		.cfi_endproc
 2351              	.LFE73:
 2353 0006 00BF     		.section	.text.HAL_DMA_GetError,"ax",%progbits
 2354              		.align	2
 2355              		.global	HAL_DMA_GetError
 2356              		.thumb
 2357              		.thumb_func
 2359              	HAL_DMA_GetError:
 2360              	.LFB74:
 839:Drivers/STM32F1xx_HAL_Driver/Src/stm32f1xx_hal_dma.c ****   return hdma->ErrorCode;
 2361              		.loc 1 839 0
 2362              		.cfi_startproc
 2363              		@ args = 0, pretend = 0, frame = 0
 2364              		@ frame_needed = 0, uses_anonymous_args = 0
 2365              		@ link register save eliminated.
 2366              	.LVL91:
 840:Drivers/STM32F1xx_HAL_Driver/Src/stm32f1xx_hal_dma.c **** }
 2367              		.loc 1 840 0
 2368 0000 806B     		ldr	r0, [r0, #56]
 2369              	.LVL92:
 841:Drivers/STM32F1xx_HAL_Driver/Src/stm32f1xx_hal_dma.c **** 
 2370              		.loc 1 841 0
 2371 0002 7047     		bx	lr
 2372              		.cfi_endproc
 2373              	.LFE74:
 2375              		.text
 2376              	.Letext0:
 2377              		.file 2 "/usr/include/newlib/machine/_default_types.h"
 2378              		.file 3 "/usr/include/newlib/sys/_stdint.h"
 2379              		.file 4 "Drivers/CMSIS/Device/ST/STM32F1xx/Include/stm32f103xe.h"
 2380              		.file 5 "Drivers/CMSIS/Device/ST/STM32F1xx/Include/stm32f1xx.h"
 2381              		.file 6 "Drivers/STM32F1xx_HAL_Driver/Inc/stm32f1xx_hal_def.h"
ARM GAS  /tmp/cc6lcHVI.s 			page 65


 2382              		.file 7 "Drivers/STM32F1xx_HAL_Driver/Inc/stm32f1xx_hal_dma.h"
 2383              		.file 8 "Drivers/CMSIS/Include/core_cm3.h"
 2384              		.file 9 "Drivers/STM32F1xx_HAL_Driver/Inc/stm32f1xx_hal.h"
ARM GAS  /tmp/cc6lcHVI.s 			page 66

